CCS PCH C Compiler, Version 5.078, 5967               16-Þub-22 08:41

               Filename:   C:\Users\Fatih\Desktop\VERICI SON YUKLENEN\main.lst

               ROM used:   16990 bytes (52%)
                           Largest free fragment is 15778
               RAM used:   228 (15%) at main() level
                           249 (16%) worst case
               Stack used: 6 locations
               Stack size: 31

*
0000:  GOTO   3BD8
.................... #include <main.h> 
.................... #include <18F4520.h> 
.................... //////////// Standard Header file for the PIC18F4520 device //////////////// 
.................... /////////////////////////////////////////////////////////////////////////// 
.................... ////        (C) Copyright 1996, 2014 Custom Computer Services          //// 
.................... //// This source code may only be used by licensed users of the CCS C  //// 
.................... //// compiler.  This source code may only be distributed to other      //// 
.................... //// licensed users of the CCS C compiler.  No other use, reproduction //// 
.................... //// or distribution is permitted without written permission.          //// 
.................... //// Derivative programs created using this software in object code    //// 
.................... //// form are not restricted in any way.                               //// 
.................... /////////////////////////////////////////////////////////////////////////// 
.................... #device PIC18F4520 
0004:  DATA 4E,45
0006:  DATA 48,49
0008:  DATA 52,20
000A:  DATA 41,49
000C:  DATA 52,00
000E:  DATA 0C,20
0010:  DATA 50,41
0012:  DATA 5A,41
0014:  DATA 52,54
0016:  DATA 45,53
0018:  DATA 49,00
001A:  DATA 0C,20
001C:  DATA 53,41
001E:  DATA 4C,49
0020:  DATA 00,00
0022:  DATA 0C,20
0024:  DATA 43,41
0026:  DATA 52,53
0028:  DATA 41,4D
002A:  DATA 42,41
002C:  DATA 00,00
002E:  DATA 0C,20
0030:  DATA 50,45
0032:  DATA 52,53
0034:  DATA 45,4D
0036:  DATA 42,45
0038:  DATA 20,00
003A:  DATA 0C,20
003C:  DATA 43,55
003E:  DATA 4D,41
0040:  DATA 20,00
0042:  DATA 0C,20
0044:  DATA 43,55
0046:  DATA 4D,41
0048:  DATA 52,54
004A:  DATA 45,53
004C:  DATA 49,20
004E:  DATA 00,00
0050:  DATA 0C,20
0052:  DATA 50,41
0054:  DATA 5A,41
0056:  DATA 52,20
0058:  DATA 20,00
005A:  DATA 47,55
005C:  DATA 4E,20
005E:  DATA 41,59
0060:  DATA 41,52
0062:  DATA 49,00
0064:  DATA 53,41
0066:  DATA 41,54
0068:  DATA 20,41
006A:  DATA 59,41
006C:  DATA 52,49
006E:  DATA 00,00
0070:  DATA 47,4F
0072:  DATA 4E,44
0074:  DATA 45,52
0076:  DATA 00,00
0078:  DATA 47,4F
007A:  DATA 4E,44
007C:  DATA 45,52
007E:  DATA 49,4C
0080:  DATA 49,59
0082:  DATA 4F,52
0084:  DATA 00,00
0086:  DATA 47,4F
0088:  DATA 4E,44
008A:  DATA 45,52
008C:  DATA 49,4C
008E:  DATA 44,49
0090:  DATA 00,00
0092:  DATA 41,43
0094:  DATA 49,4B
0096:  DATA 2F,4B
0098:  DATA 41,50
009A:  DATA 41,4C
009C:  DATA 49,00
009E:  DATA 50,41
00A0:  DATA 5A,41
00A2:  DATA 52,54
00A4:  DATA 45,53
00A6:  DATA 49,00
00A8:  DATA 41,43
00AA:  DATA 49,4B
00AC:  DATA 00,00
00AE:  DATA 42,41
00B0:  DATA 53,4C
00B2:  DATA 41,4E
00B4:  DATA 47,49
00B6:  DATA 43,20
00B8:  DATA 53,41
00BA:  DATA 41,54
00BC:  DATA 49,00
00BE:  DATA 0C,20
00C0:  DATA 42,49
00C2:  DATA 54,49
00C4:  DATA 53,20
00C6:  DATA 53,41
00C8:  DATA 41,54
00CA:  DATA 49,00
00CC:  DATA 4B,41
00CE:  DATA 50,41
00D0:  DATA 4C,49
00D2:  DATA 00,00
00D4:  DATA 41,43
00D6:  DATA 49,4B
00D8:  DATA 2F,4B
00DA:  DATA 41,50
00DC:  DATA 41,4C
00DE:  DATA 49,00
00E0:  DATA 53,41
00E2:  DATA 4C,49
00E4:  DATA 20,31
00E6:  DATA 00,00
00E8:  DATA 41,43
00EA:  DATA 49,4B
00EC:  DATA 00,00
00EE:  DATA 42,41
00F0:  DATA 53,4C
00F2:  DATA 41,4E
00F4:  DATA 47,49
00F6:  DATA 43,20
00F8:  DATA 53,41
00FA:  DATA 41,54
00FC:  DATA 49,00
00FE:  DATA 0C,20
0100:  DATA 42,49
0102:  DATA 54,49
0104:  DATA 53,20
0106:  DATA 53,41
0108:  DATA 41,54
010A:  DATA 49,00
010C:  DATA 4B,41
010E:  DATA 50,41
0110:  DATA 4C,49
0112:  DATA 00,00
0114:  DATA 41,43
0116:  DATA 49,4B
0118:  DATA 2F,4B
011A:  DATA 41,50
011C:  DATA 41,4C
011E:  DATA 49,00
0120:  DATA 43,41
0122:  DATA 52,53
0124:  DATA 41,4D
0126:  DATA 42,41
0128:  DATA 20,31
012A:  DATA 00,00
012C:  DATA 41,43
012E:  DATA 49,4B
0130:  DATA 00,00
0132:  DATA 42,41
0134:  DATA 53,4C
0136:  DATA 41,4E
0138:  DATA 47,49
013A:  DATA 43,20
013C:  DATA 53,41
013E:  DATA 41,54
0140:  DATA 49,00
0142:  DATA 0C,20
0144:  DATA 42,49
0146:  DATA 54,49
0148:  DATA 53,20
014A:  DATA 53,41
014C:  DATA 41,54
014E:  DATA 49,00
0150:  DATA 4B,41
0152:  DATA 50,41
0154:  DATA 4C,49
0156:  DATA 00,00
0158:  DATA 41,43
015A:  DATA 49,4B
015C:  DATA 2F,4B
015E:  DATA 41,50
0160:  DATA 41,4C
0162:  DATA 49,00
0164:  DATA 50,45
0166:  DATA 52,53
0168:  DATA 45,4D
016A:  DATA 42,45
016C:  DATA 20,31
016E:  DATA 00,00
0170:  DATA 41,43
0172:  DATA 49,4B
0174:  DATA 00,00
0176:  DATA 42,41
0178:  DATA 53,4C
017A:  DATA 41,4E
017C:  DATA 47,49
017E:  DATA 43,20
0180:  DATA 53,41
0182:  DATA 41,54
0184:  DATA 49,00
0186:  DATA 0C,20
0188:  DATA 42,49
018A:  DATA 54,49
018C:  DATA 53,20
018E:  DATA 53,41
0190:  DATA 41,54
0192:  DATA 49,00
0194:  DATA 4B,41
0196:  DATA 50,41
0198:  DATA 4C,49
019A:  DATA 00,00
019C:  DATA 41,43
019E:  DATA 49,4B
01A0:  DATA 2F,4B
01A2:  DATA 41,50
01A4:  DATA 41,4C
01A6:  DATA 49,00
01A8:  DATA 43,55
01AA:  DATA 4D,41
01AC:  DATA 20,31
01AE:  DATA 00,00
01B0:  DATA 41,43
01B2:  DATA 49,4B
01B4:  DATA 00,00
01B6:  DATA 42,41
01B8:  DATA 53,4C
01BA:  DATA 41,4E
01BC:  DATA 47,49
01BE:  DATA 43,20
01C0:  DATA 53,41
01C2:  DATA 41,54
01C4:  DATA 49,00
01C6:  DATA 0C,20
01C8:  DATA 42,49
01CA:  DATA 54,49
01CC:  DATA 53,20
01CE:  DATA 53,41
01D0:  DATA 41,54
01D2:  DATA 49,00
01D4:  DATA 4B,41
01D6:  DATA 50,41
01D8:  DATA 4C,49
01DA:  DATA 00,00
01DC:  DATA 41,43
01DE:  DATA 49,4B
01E0:  DATA 2F,4B
01E2:  DATA 41,50
01E4:  DATA 41,4C
01E6:  DATA 49,00
01E8:  DATA 43,55
01EA:  DATA 4D,41
01EC:  DATA 52,54
01EE:  DATA 45,53
01F0:  DATA 49,20
01F2:  DATA 31,00
01F4:  DATA 41,43
01F6:  DATA 49,4B
01F8:  DATA 00,00
01FA:  DATA 42,41
01FC:  DATA 53,4C
01FE:  DATA 41,4E
0200:  DATA 47,49
0202:  DATA 43,20
0204:  DATA 53,41
0206:  DATA 41,54
0208:  DATA 49,00
020A:  DATA 0C,20
020C:  DATA 42,49
020E:  DATA 54,49
0210:  DATA 53,20
0212:  DATA 53,41
0214:  DATA 41,54
0216:  DATA 49,00
0218:  DATA 4B,41
021A:  DATA 50,41
021C:  DATA 4C,49
021E:  DATA 00,00
0220:  DATA 41,43
0222:  DATA 49,4B
0224:  DATA 2F,4B
0226:  DATA 41,50
0228:  DATA 41,4C
022A:  DATA 49,00
022C:  DATA 50,41
022E:  DATA 5A,41
0230:  DATA 52,20
0232:  DATA 31,00
0234:  DATA 41,43
0236:  DATA 49,4B
0238:  DATA 00,00
023A:  DATA 42,41
023C:  DATA 53,4C
023E:  DATA 41,4E
0240:  DATA 47,49
0242:  DATA 43,20
0244:  DATA 53,41
0246:  DATA 41,54
0248:  DATA 49,00
024A:  DATA 0C,20
024C:  DATA 42,49
024E:  DATA 54,49
0250:  DATA 53,20
0252:  DATA 53,41
0254:  DATA 41,54
0256:  DATA 49,00
0258:  DATA 4B,41
025A:  DATA 50,41
025C:  DATA 4C,49
025E:  DATA 00,00
0260:  DATA 42,55
0262:  DATA 47,55
0264:  DATA 4E,00
0266:  DATA 50,41
0268:  DATA 5A,41
026A:  DATA 52,54
026C:  DATA 45,53
026E:  DATA 49,00
0270:  DATA 53,41
0272:  DATA 4C,49
0274:  DATA 00,00
0276:  DATA 43,41
0278:  DATA 52,53
027A:  DATA 41,4D
027C:  DATA 42,41
027E:  DATA 00,00
0280:  DATA 50,45
0282:  DATA 52,53
0284:  DATA 45,4D
0286:  DATA 42,45
0288:  DATA 00,00
028A:  DATA 20,43
028C:  DATA 55,4D
028E:  DATA 41,00
0290:  DATA 43,55
0292:  DATA 4D,41
0294:  DATA 52,54
0296:  DATA 45,53
0298:  DATA 49,00
029A:  DATA 50,41
029C:  DATA 5A,41
029E:  DATA 52,00
*
04D6:  TBLRD*+
04D8:  MOVF   FF5,F
04DA:  BZ    04F4
04DC:  MOVFF  FF6,E4
04E0:  MOVFF  FF7,E5
04E4:  MOVFF  FF5,EB
04E8:  RCALL  0486
04EA:  MOVFF  E4,FF6
04EE:  MOVFF  E5,FF7
04F2:  BRA    04D6
04F4:  RETURN 0
04F6:  MOVF   xF7,W
04F8:  CLRF   01
04FA:  SUBWF  xF6,W
04FC:  BC    0504
04FE:  MOVFF  F6,00
0502:  BRA    051C
0504:  CLRF   00
0506:  MOVLW  08
0508:  MOVWF  xF8
050A:  RLCF   xF6,F
050C:  RLCF   00,F
050E:  MOVF   xF7,W
0510:  SUBWF  00,W
0512:  BTFSC  FD8.0
0514:  MOVWF  00
0516:  RLCF   01,F
0518:  DECFSZ xF8,F
051A:  BRA    050A
051C:  RETURN 0
051E:  MOVLW  20
0520:  BTFSS  xE6.4
0522:  MOVLW  30
0524:  MOVWF  xE7
0526:  MOVFF  E5,00
052A:  BTFSS  xE5.7
052C:  BRA    053E
052E:  COMF   00,F
0530:  INCF   00,F
0532:  MOVFF  00,E5
0536:  MOVLW  2D
0538:  MOVWF  xE7
053A:  BSF    xE6.7
053C:  BSF    xE6.0
053E:  MOVF   01,W
0540:  MOVFF  E5,F6
0544:  MOVLW  64
0546:  MOVWF  xF7
0548:  RCALL  04F6
054A:  MOVFF  00,E5
054E:  MOVLW  30
0550:  ADDWF  01,W
0552:  MOVWF  xE8
0554:  MOVFF  E5,F6
0558:  MOVLW  0A
055A:  MOVWF  xF7
055C:  RCALL  04F6
055E:  MOVLW  30
0560:  ADDWF  00,W
0562:  MOVWF  xEA
0564:  MOVLW  30
0566:  ADDWF  01,W
0568:  MOVWF  xE9
056A:  MOVFF  E7,00
056E:  MOVLW  30
0570:  SUBWF  xE8,W
0572:  BZ    057C
0574:  BSF    xE6.1
0576:  BTFSC  xE6.7
0578:  BSF    xE6.2
057A:  BRA    05A0
057C:  BTFSC  xE6.2
057E:  BRA    05A0
0580:  MOVFF  E7,E8
0584:  BTFSC  xE6.1
0586:  BRA    0590
0588:  MOVLW  30
058A:  SUBWF  xE9,W
058C:  BZ    0596
058E:  BSF    xE6.0
0590:  BTFSC  xE6.7
0592:  BSF    xE6.1
0594:  BRA    05A0
0596:  BTFSS  FD8.2
0598:  BSF    xE6.0
059A:  BTFSC  FD8.2
059C:  MOVFF  E8,E9
05A0:  BTFSC  xE6.2
05A2:  BRA    05AE
05A4:  BTFSC  xE6.1
05A6:  BRA    05B4
05A8:  BTFSC  xE6.0
05AA:  BRA    05BA
05AC:  BRA    05C0
05AE:  MOVFF  E7,EB
05B2:  RCALL  0486
05B4:  MOVFF  E8,EB
05B8:  RCALL  0486
05BA:  MOVFF  E9,EB
05BE:  RCALL  0486
05C0:  MOVFF  EA,EB
05C4:  RCALL  0486
05C6:  RETURN 0
05C8:  MOVLW  20
05CA:  BTFSS  xE6.4
05CC:  MOVLW  30
05CE:  MOVWF  xE7
05D0:  MOVFF  E5,00
05D4:  BTFSS  xE5.7
05D6:  BRA    05E8
05D8:  COMF   00,F
05DA:  INCF   00,F
05DC:  MOVFF  00,E5
05E0:  MOVLW  2D
05E2:  MOVWF  xE7
05E4:  BSF    xE6.7
05E6:  BSF    xE6.0
05E8:  MOVF   01,W
05EA:  MOVFF  E5,F6
05EE:  MOVLW  64
05F0:  MOVWF  xF7
05F2:  RCALL  04F6
05F4:  MOVFF  00,E5
05F8:  MOVLW  30
05FA:  ADDWF  01,W
05FC:  MOVWF  xE8
05FE:  MOVFF  E5,F6
0602:  MOVLW  0A
0604:  MOVWF  xF7
0606:  RCALL  04F6
0608:  MOVLW  30
060A:  ADDWF  00,W
060C:  MOVWF  xEA
060E:  MOVLW  30
0610:  ADDWF  01,W
0612:  MOVWF  xE9
0614:  MOVFF  E7,00
0618:  MOVLW  30
061A:  SUBWF  xE8,W
061C:  BZ    0626
061E:  BSF    xE6.1
0620:  BTFSC  xE6.7
0622:  BSF    xE6.2
0624:  BRA    064A
0626:  MOVFF  E7,E8
062A:  MOVLW  20
062C:  MOVWF  xE7
062E:  MOVLW  30
0630:  SUBWF  xE9,W
0632:  BZ    063C
0634:  BSF    xE6.0
0636:  BTFSC  xE6.7
0638:  BSF    xE6.1
063A:  BRA    064A
063C:  BTFSS  FD8.2
063E:  BSF    xE6.0
0640:  BNZ   064A
0642:  MOVFF  E8,E9
0646:  MOVLW  20
0648:  MOVWF  xE8
064A:  BTFSC  xE6.2
064C:  BRA    0658
064E:  BTFSC  xE6.1
0650:  BRA    065E
0652:  BTFSC  xE6.0
0654:  BRA    0664
0656:  BRA    066A
0658:  MOVFF  E7,EB
065C:  RCALL  0486
065E:  MOVFF  E8,EB
0662:  RCALL  0486
0664:  MOVFF  E9,EB
0668:  RCALL  0486
066A:  MOVFF  EA,EB
066E:  RCALL  0486
0670:  RETURN 0
....................  
.................... #list 
....................  
.................... #device ADC=10 
....................  
.................... #FUSES NOWDT                 	//No Watch Dog Timer 
....................  
.................... #use delay(crystal=4000000) 
....................  
....................  
.................... #use delay(clock=4000000) 
*
02A0:  CLRF   FEA
02A2:  MOVLW  EC
02A4:  MOVWF  FE9
02A6:  MOVF   FEF,W
02A8:  BZ    02C6
02AA:  MOVLW  01
02AC:  MOVWF  01
02AE:  CLRF   00
02B0:  DECFSZ 00,F
02B2:  BRA    02B0
02B4:  DECFSZ 01,F
02B6:  BRA    02AE
02B8:  MOVLW  4A
02BA:  MOVWF  00
02BC:  DECFSZ 00,F
02BE:  BRA    02BC
02C0:  BRA    02C2
02C2:  DECFSZ FEF,F
02C4:  BRA    02AA
02C6:  RETURN 0
.................... #define LCD_RS_PIN PIN_D0 
.................... #define LCD_RW_PIN PIN_D1 
.................... #define LCD_ENABLE_PIN PIN_D2 
.................... #define LCD_DATA4 PIN_D3 
.................... #define LCD_DATA5 PIN_D4 
.................... #define LCD_DATA6 PIN_D5 
.................... #define LCD_DATA7 PIN_D6 
.................... #fuses XT,NOWDT,NOPROTECT,NOBROWNOUT,NOLVP,NOPUT,NOWRT,NODEBUG,NOCPD 
.................... #include<lcd.c> 
.................... /////////////////////////////////////////////////////////////////////////////// 
.................... ////                             LCD.C                                     //// 
.................... ////                 Driver for common LCD modules                         //// 
.................... ////                                                                       //// 
.................... ////  lcd_init()   Must be called before any other function.               //// 
.................... ////                                                                       //// 
.................... ////  lcd_putc(c)  Will display c on the next position of the LCD.         //// 
.................... ////                 \a  Set cursor position to upper left                 //// 
.................... ////                 \f  Clear display, set cursor to upper left           //// 
.................... ////                 \n  Go to start of second line                        //// 
.................... ////                 \b  Move back one position                            //// 
.................... ////              If LCD_EXTENDED_NEWLINE is defined, the \n character     //// 
.................... ////              will erase all remanining characters on the current      //// 
.................... ////              line, and move the cursor to the beginning of the next   //// 
.................... ////              line.                                                    //// 
.................... ////              If LCD_EXTENDED_NEWLINE is defined, the \r character     //// 
.................... ////              will move the cursor to the start of the current         //// 
.................... ////              line.                                                    //// 
.................... ////                                                                       //// 
.................... ////  lcd_gotoxy(x,y) Set write position on LCD (upper left is 1,1)        //// 
.................... ////                                                                       //// 
.................... ////  lcd_getc(x,y)   Returns character at position x,y on LCD             //// 
.................... ////                                                                       //// 
.................... ////  lcd_cursor_on(int1 on)   Turn the cursor on (on=TRUE) or off         //// 
.................... ////              (on=FALSE).                                              //// 
.................... ////                                                                       //// 
.................... ////  lcd_set_cgram_char(w, *p)   Write a custom character to the CGRAM.   //// 
.................... ////                                                                       //// 
.................... ////                                                                       //// 
.................... ////  CONFIGURATION                                                        //// 
.................... ////  The LCD can be configured in one of two ways: a.) port access or     //// 
.................... ////  b.) pin access.  Port access requires the entire 7 bit interface     //// 
.................... ////  connected to one GPIO port, and the data bits (D4:D7 of the LCD)     //// 
.................... ////  connected to sequential pins on the GPIO.  Pin access                //// 
.................... ////  has no requirements, all 7 bits of the control interface can         //// 
.................... ////  can be connected to any GPIO using several ports.                    //// 
.................... ////                                                                       //// 
.................... ////  To use port access, #define LCD_DATA_PORT to the SFR location of     //// 
.................... ////  of the GPIO port that holds the interface, -AND- edit LCD_PIN_MAP    //// 
.................... ////  of this file to configure the pin order.  If you are using a         //// 
.................... ////  baseline PIC (PCB), then LCD_OUTPUT_MAP and LCD_INPUT_MAP also must  //// 
.................... ////  be defined.                                                          //// 
.................... ////                                                                       //// 
.................... ////  Example of port access:                                              //// 
.................... ////     #define LCD_DATA_PORT getenv("SFR:PORTD")                         //// 
.................... ////                                                                       //// 
.................... ////  To use pin access, the following pins must be defined:               //// 
.................... ////     LCD_ENABLE_PIN                                                    //// 
.................... ////     LCD_RS_PIN                                                        //// 
.................... ////     LCD_RW_PIN                                                        //// 
.................... ////     LCD_DATA4                                                         //// 
.................... ////     LCD_DATA5                                                         //// 
.................... ////     LCD_DATA6                                                         //// 
.................... ////     LCD_DATA7                                                         //// 
.................... ////                                                                       //// 
.................... ////  Example of pin access:                                               //// 
.................... ////     #define LCD_ENABLE_PIN  PIN_E0                                    //// 
.................... ////     #define LCD_RS_PIN      PIN_E1                                    //// 
.................... ////     #define LCD_RW_PIN      PIN_E2                                    //// 
.................... ////     #define LCD_DATA4       PIN_D4                                    //// 
.................... ////     #define LCD_DATA5       PIN_D5                                    //// 
.................... ////     #define LCD_DATA6       PIN_D6                                    //// 
.................... ////     #define LCD_DATA7       PIN_D7                                    //// 
.................... ////                                                                       //// 
.................... /////////////////////////////////////////////////////////////////////////////// 
.................... ////        (C) Copyright 1996,2010 Custom Computer Services           //// 
.................... //// This source code may only be used by licensed users of the CCS C  //// 
.................... //// compiler.  This source code may only be distributed to other      //// 
.................... //// licensed users of the CCS C compiler.  No other use, reproduction //// 
.................... //// or distribution is permitted without written permission.          //// 
.................... //// Derivative programs created using this software in object code    //// 
.................... //// form are not restricted in any way.                               //// 
.................... /////////////////////////////////////////////////////////////////////////// 
....................  
.................... #ifndef __LCD_C__ 
.................... #define __LCD_C__ 
....................  
.................... // define the pinout. 
.................... // only required if port access is being used. 
.................... typedef struct   
.................... {                            // This structure is overlayed 
....................    int1 enable;           // on to an I/O port to gain 
....................    int1 rs;               // access to the LCD pins. 
....................    int1 rw;               // The bits are allocated from 
....................    int1 unused;           // low order up.  ENABLE will 
....................    unsigned int     data : 4;         // be LSB pin of that port. 
....................   #if defined(__PCD__)       // The port used will be LCD_DATA_PORT. 
....................    unsigned int    reserved: 8; 
....................   #endif 
.................... } LCD_PIN_MAP; 
....................  
.................... // this is to improve compatability with previous LCD drivers that accepted 
.................... // a define labeled 'use_portb_lcd' that configured the LCD onto port B. 
.................... #if ((defined(use_portb_lcd)) && (use_portb_lcd==TRUE)) 
....................  #define LCD_DATA_PORT getenv("SFR:PORTB") 
.................... #endif 
....................  
.................... #if defined(__PCB__) 
....................    // these definitions only need to be modified for baseline PICs. 
....................    // all other PICs use LCD_PIN_MAP or individual LCD_xxx pin definitions. 
.................... /*                                    EN, RS,   RW,   UNUSED,  DATA  */ 
....................  const LCD_PIN_MAP LCD_OUTPUT_MAP =  {0,  0,    0,    0,       0}; 
....................  const LCD_PIN_MAP LCD_INPUT_MAP =   {0,  0,    0,    0,       0xF}; 
.................... #endif 
....................  
.................... ////////////////////// END CONFIGURATION /////////////////////////////////// 
....................  
.................... #ifndef LCD_ENABLE_PIN 
....................    #define lcd_output_enable(x) lcdlat.enable=x 
....................    #define lcd_enable_tris()   lcdtris.enable=0 
.................... #else 
....................    #define lcd_output_enable(x) output_bit(LCD_ENABLE_PIN, x) 
....................    #define lcd_enable_tris()  output_drive(LCD_ENABLE_PIN) 
.................... #endif 
....................  
.................... #ifndef LCD_RS_PIN 
....................    #define lcd_output_rs(x) lcdlat.rs=x 
....................    #define lcd_rs_tris()   lcdtris.rs=0 
.................... #else 
....................    #define lcd_output_rs(x) output_bit(LCD_RS_PIN, x) 
....................    #define lcd_rs_tris()  output_drive(LCD_RS_PIN) 
.................... #endif 
....................  
.................... #ifndef LCD_RW_PIN 
....................    #define lcd_output_rw(x) lcdlat.rw=x 
....................    #define lcd_rw_tris()   lcdtris.rw=0 
.................... #else 
....................    #define lcd_output_rw(x) output_bit(LCD_RW_PIN, x) 
....................    #define lcd_rw_tris()  output_drive(LCD_RW_PIN) 
.................... #endif 
....................  
.................... // original version of this library incorrectly labeled LCD_DATA0 as LCD_DATA4, 
.................... // LCD_DATA1 as LCD_DATA5, and so on.  this block of code makes the driver 
.................... // compatible with any code written for the original library 
.................... #if (defined(LCD_DATA0) && defined(LCD_DATA1) && defined(LCD_DATA2) && defined(LCD_DATA3) && !defined(LCD_DATA4) && !defined(LCD_DATA5) && !defined(LCD_DATA6) && !defined(LCD_DATA7)) 
....................    #define  LCD_DATA4    LCD_DATA0 
....................    #define  LCD_DATA5    LCD_DATA1 
....................    #define  LCD_DATA6    LCD_DATA2 
....................    #define  LCD_DATA7    LCD_DATA3 
.................... #endif 
....................  
.................... #ifndef LCD_DATA4 
.................... #ifndef LCD_DATA_PORT 
....................    #if defined(__PCB__) 
....................       #define LCD_DATA_PORT      0x06     //portb 
....................       #define set_tris_lcd(x)   set_tris_b(x) 
....................    #else 
....................      #if defined(PIN_D0) 
....................       #define LCD_DATA_PORT      getenv("SFR:PORTD")     //portd 
....................      #else 
....................       #define LCD_DATA_PORT      getenv("SFR:PORTB")     //portb 
....................      #endif 
....................    #endif    
.................... #endif 
....................  
.................... #if defined(__PCB__) 
....................    LCD_PIN_MAP lcd, lcdlat; 
....................    #byte lcd = LCD_DATA_PORT 
....................    #byte lcdlat = LCD_DATA_PORT 
.................... #elif defined(__PCM__) 
....................    LCD_PIN_MAP lcd, lcdlat, lcdtris; 
....................    #byte lcd = LCD_DATA_PORT 
....................    #byte lcdlat = LCD_DATA_PORT 
....................    #byte lcdtris = LCD_DATA_PORT+0x80 
.................... #elif defined(__PCH__) 
....................    LCD_PIN_MAP lcd, lcdlat, lcdtris; 
....................    #byte lcd = LCD_DATA_PORT 
....................    #byte lcdlat = LCD_DATA_PORT+9 
....................    #byte lcdtris = LCD_DATA_PORT+0x12 
.................... #elif defined(__PCD__) 
....................    LCD_PIN_MAP lcd, lcdlat, lcdtris; 
....................    #word lcd = LCD_DATA_PORT 
....................    #word lcdlat = LCD_DATA_PORT+2 
....................    #word lcdtris = LCD_DATA_PORT-0x02 
.................... #endif 
.................... #endif   //LCD_DATA4 not defined 
....................  
.................... #ifndef LCD_TYPE 
....................    #define LCD_TYPE 2           // 0=5x7, 1=5x10, 2=2 lines 
.................... #endif 
....................  
.................... #ifndef LCD_LINE_TWO 
....................    #define LCD_LINE_TWO 0x40    // LCD RAM address for the second line 
.................... #endif 
....................  
.................... #ifndef LCD_LINE_LENGTH 
....................    #define LCD_LINE_LENGTH 20 
.................... #endif 
....................  
.................... unsigned int8 lcd_read_nibble(void); 
....................  
.................... unsigned int8 lcd_read_byte(void) 
.................... { 
....................    unsigned int8 low,high; 
....................  
....................  #if defined(__PCB__) 
....................    set_tris_lcd(LCD_INPUT_MAP); 
....................  #else 
....................   #if (defined(LCD_DATA4) && defined(LCD_DATA5) && defined(LCD_DATA6) && defined(LCD_DATA7)) 
....................    output_float(LCD_DATA4); 
*
0358:  BSF    F95.3
....................    output_float(LCD_DATA5); 
035A:  BSF    F95.4
....................    output_float(LCD_DATA6); 
035C:  BSF    F95.5
....................    output_float(LCD_DATA7); 
035E:  BSF    F95.6
....................   #else 
....................    lcdtris.data = 0xF; 
....................   #endif 
....................  #endif 
....................          
....................    lcd_output_rw(1); 
0360:  BSF    F8C.1
0362:  BCF    F95.1
....................    delay_cycles(1); 
0364:  NOP   
....................    lcd_output_enable(1); 
0366:  BSF    F8C.2
0368:  BCF    F95.2
....................    delay_cycles(1); 
036A:  NOP   
....................    high = lcd_read_nibble(); 
036C:  RCALL  0306
036E:  MOVFF  01,F3
....................        
....................    lcd_output_enable(0); 
0372:  BCF    F8C.2
0374:  BCF    F95.2
....................    delay_cycles(1); 
0376:  NOP   
....................    lcd_output_enable(1); 
0378:  BSF    F8C.2
037A:  BCF    F95.2
....................    delay_us(1); 
037C:  NOP   
....................    low = lcd_read_nibble(); 
037E:  RCALL  0306
0380:  MOVFF  01,F2
....................        
....................    lcd_output_enable(0); 
0384:  BCF    F8C.2
0386:  BCF    F95.2
....................  
....................  #if defined(__PCB__) 
....................    set_tris_lcd(LCD_OUTPUT_MAP); 
....................  #else 
....................   #if (defined(LCD_DATA4) && defined(LCD_DATA5) && defined(LCD_DATA6) && defined(LCD_DATA7)) 
....................    output_drive(LCD_DATA4); 
0388:  BCF    F95.3
....................    output_drive(LCD_DATA5); 
038A:  BCF    F95.4
....................    output_drive(LCD_DATA6); 
038C:  BCF    F95.5
....................    output_drive(LCD_DATA7); 
038E:  BCF    F95.6
....................   #else 
....................    lcdtris.data = 0x0; 
....................   #endif 
....................  #endif 
....................  
....................    return( (high<<4) | low); 
0390:  SWAPF  xF3,W
0392:  MOVWF  00
0394:  MOVLW  F0
0396:  ANDWF  00,F
0398:  MOVF   00,W
039A:  IORWF  xF2,W
039C:  MOVWF  01
039E:  GOTO   03AE (RETURN)
.................... } 
....................  
.................... unsigned int8 lcd_read_nibble(void) 
.................... { 
....................   #if (defined(LCD_DATA4) && defined(LCD_DATA5) && defined(LCD_DATA6) && defined(LCD_DATA7)) 
*
0306:  CLRF   xF4
....................    unsigned int8 n = 0x00; 
....................  
....................    /* Read the data port */ 
....................    n |= input(LCD_DATA4); 
0308:  BSF    F95.3
030A:  MOVLW  00
030C:  BTFSC  F83.3
030E:  MOVLW  01
0310:  IORWF  xF4,F
....................    n |= input(LCD_DATA5) << 1; 
0312:  BSF    F95.4
0314:  MOVLW  00
0316:  BTFSC  F83.4
0318:  MOVLW  01
031A:  MOVWF  00
031C:  BCF    FD8.0
031E:  RLCF   00,F
0320:  MOVF   00,W
0322:  IORWF  xF4,F
....................    n |= input(LCD_DATA6) << 2; 
0324:  BSF    F95.5
0326:  MOVLW  00
0328:  BTFSC  F83.5
032A:  MOVLW  01
032C:  MOVWF  00
032E:  RLCF   00,F
0330:  RLCF   00,F
0332:  MOVLW  FC
0334:  ANDWF  00,F
0336:  MOVF   00,W
0338:  IORWF  xF4,F
....................    n |= input(LCD_DATA7) << 3; 
033A:  BSF    F95.6
033C:  MOVLW  00
033E:  BTFSC  F83.6
0340:  MOVLW  01
0342:  MOVWF  00
0344:  RLCF   00,F
0346:  RLCF   00,F
0348:  RLCF   00,F
034A:  MOVLW  F8
034C:  ANDWF  00,F
034E:  MOVF   00,W
0350:  IORWF  xF4,F
....................     
....................    return(n); 
0352:  MOVFF  F4,01
....................   #else 
0356:  RETURN 0
....................    return(lcd.data); 
....................   #endif 
.................... } 
....................  
.................... void lcd_send_nibble(unsigned int8 n) 
.................... { 
....................   #if (defined(LCD_DATA4) && defined(LCD_DATA5) && defined(LCD_DATA6) && defined(LCD_DATA7)) 
....................    /* Write to the data port */ 
....................    output_bit(LCD_DATA4, bit_test(n, 0)); 
*
02C8:  BTFSC  xF3.0
02CA:  BRA    02D0
02CC:  BCF    F8C.3
02CE:  BRA    02D2
02D0:  BSF    F8C.3
02D2:  BCF    F95.3
....................    output_bit(LCD_DATA5, bit_test(n, 1)); 
02D4:  BTFSC  xF3.1
02D6:  BRA    02DC
02D8:  BCF    F8C.4
02DA:  BRA    02DE
02DC:  BSF    F8C.4
02DE:  BCF    F95.4
....................    output_bit(LCD_DATA6, bit_test(n, 2)); 
02E0:  BTFSC  xF3.2
02E2:  BRA    02E8
02E4:  BCF    F8C.5
02E6:  BRA    02EA
02E8:  BSF    F8C.5
02EA:  BCF    F95.5
....................    output_bit(LCD_DATA7, bit_test(n, 3)); 
02EC:  BTFSC  xF3.3
02EE:  BRA    02F4
02F0:  BCF    F8C.6
02F2:  BRA    02F6
02F4:  BSF    F8C.6
02F6:  BCF    F95.6
....................   #else       
....................    lcdlat.data = n; 
....................   #endif 
....................        
....................    delay_cycles(1); 
02F8:  NOP   
....................    lcd_output_enable(1); 
02FA:  BSF    F8C.2
02FC:  BCF    F95.2
....................    delay_us(2); 
02FE:  BRA    0300
....................    lcd_output_enable(0); 
0300:  BCF    F8C.2
0302:  BCF    F95.2
0304:  RETURN 0
.................... } 
....................  
.................... void lcd_send_byte(unsigned int8 address, unsigned int8 n) 
.................... { 
....................   #if defined(__PCB__) 
....................    set_tris_lcd(LCD_OUTPUT_MAP); 
....................   #else 
....................    lcd_enable_tris(); 
*
03A2:  BCF    F95.2
....................    lcd_rs_tris(); 
03A4:  BCF    F95.0
....................    lcd_rw_tris(); 
03A6:  BCF    F95.1
....................   #endif 
....................  
....................    lcd_output_rs(0); 
03A8:  BCF    F8C.0
03AA:  BCF    F95.0
....................    while ( bit_test(lcd_read_byte(),7) ) ; 
03AC:  BRA    0358
03AE:  MOVFF  01,F2
03B2:  BTFSC  01.7
03B4:  BRA    03AC
....................    lcd_output_rs(address); 
03B6:  MOVF   xF0,F
03B8:  BNZ   03BE
03BA:  BCF    F8C.0
03BC:  BRA    03C0
03BE:  BSF    F8C.0
03C0:  BCF    F95.0
....................    delay_cycles(1); 
03C2:  NOP   
....................    lcd_output_rw(0); 
03C4:  BCF    F8C.1
03C6:  BCF    F95.1
....................    delay_cycles(1); 
03C8:  NOP   
....................    lcd_output_enable(0); 
03CA:  BCF    F8C.2
03CC:  BCF    F95.2
....................    lcd_send_nibble(n >> 4); 
03CE:  SWAPF  xF1,W
03D0:  MOVWF  xF2
03D2:  MOVLW  0F
03D4:  ANDWF  xF2,F
03D6:  MOVFF  F2,F3
03DA:  RCALL  02C8
....................    lcd_send_nibble(n & 0xf); 
03DC:  MOVF   xF1,W
03DE:  ANDLW  0F
03E0:  MOVWF  xF2
03E2:  MOVWF  xF3
03E4:  RCALL  02C8
03E6:  RETURN 0
.................... } 
....................  
.................... #if defined(LCD_EXTENDED_NEWLINE) 
.................... unsigned int8 g_LcdX, g_LcdY; 
.................... #endif 
....................  
.................... void lcd_init(void)  
.................... { 
....................    unsigned int8 i; 
....................    unsigned int8 LCD_INIT_STRING[4] = {0x20 | (LCD_TYPE << 2), 0xc, 1, 6}; 
03E8:  MOVLW  28
03EA:  MOVWF  xE2
03EC:  MOVLW  0C
03EE:  MOVWF  xE3
03F0:  MOVLW  01
03F2:  MOVWF  xE4
03F4:  MOVLW  06
03F6:  MOVWF  xE5
....................                              // These bytes need to be sent to the LCD 
....................                              // to start it up. 
....................     
....................  
....................    lcd_output_enable(0); 
03F8:  BCF    F8C.2
03FA:  BCF    F95.2
....................    lcd_output_rs(0); 
03FC:  BCF    F8C.0
03FE:  BCF    F95.0
....................    lcd_output_rw(0); 
0400:  BCF    F8C.1
0402:  BCF    F95.1
....................  
....................  #if defined(__PCB__) 
....................    set_tris_lcd(LCD_OUTPUT_MAP); 
....................  #else 
....................   #if (defined(LCD_DATA4) && defined(LCD_DATA5) && defined(LCD_DATA6) && defined(LCD_DATA7)) 
....................    output_drive(LCD_DATA4); 
0404:  BCF    F95.3
....................    output_drive(LCD_DATA5); 
0406:  BCF    F95.4
....................    output_drive(LCD_DATA6); 
0408:  BCF    F95.5
....................    output_drive(LCD_DATA7); 
040A:  BCF    F95.6
....................   #else 
....................    lcdtris.data = 0x0; 
....................   #endif 
....................    lcd_enable_tris(); 
040C:  BCF    F95.2
....................    lcd_rs_tris(); 
040E:  BCF    F95.0
....................    lcd_rw_tris(); 
0410:  BCF    F95.1
....................  #endif 
....................      
....................    delay_ms(15); 
0412:  MOVLW  0F
0414:  MOVWF  xEC
0416:  RCALL  02A0
....................    for(i=1;i<=3;++i) 
0418:  MOVLW  01
041A:  MOVWF  xE1
041C:  MOVF   xE1,W
041E:  SUBLW  03
0420:  BNC   0432
....................    { 
....................        lcd_send_nibble(3); 
0422:  MOVLW  03
0424:  MOVWF  xF3
0426:  RCALL  02C8
....................        delay_ms(5); 
0428:  MOVLW  05
042A:  MOVWF  xEC
042C:  RCALL  02A0
042E:  INCF   xE1,F
0430:  BRA    041C
....................    } 
....................     
....................    lcd_send_nibble(2); 
0432:  MOVLW  02
0434:  MOVWF  xF3
0436:  RCALL  02C8
....................    delay_ms(5); 
0438:  MOVLW  05
043A:  MOVWF  xEC
043C:  RCALL  02A0
....................    for(i=0;i<=3;++i) 
043E:  CLRF   xE1
0440:  MOVF   xE1,W
0442:  SUBLW  03
0444:  BNC   0460
....................       lcd_send_byte(0,LCD_INIT_STRING[i]); 
0446:  CLRF   03
0448:  MOVF   xE1,W
044A:  ADDLW  E2
044C:  MOVWF  FE9
044E:  MOVLW  00
0450:  ADDWFC 03,W
0452:  MOVWF  FEA
0454:  MOVFF  FEF,F1
0458:  CLRF   xF0
045A:  RCALL  03A2
....................  
....................   #if defined(LCD_EXTENDED_NEWLINE) 
045C:  INCF   xE1,F
045E:  BRA    0440
0460:  GOTO   3C82 (RETURN)
....................    g_LcdX = 0; 
....................    g_LcdY = 0; 
....................   #endif 
.................... } 
....................  
.................... void lcd_gotoxy(unsigned int8 x, unsigned int8 y) 
.................... { 
....................    unsigned int8 address; 
....................     
....................    if(y!=1) 
0464:  DECFSZ xED,W
0466:  BRA    046A
0468:  BRA    0470
....................       address=LCD_LINE_TWO; 
046A:  MOVLW  40
046C:  MOVWF  xEE
046E:  BRA    0472
....................    else 
....................       address=0; 
0470:  CLRF   xEE
....................       
....................    address+=x-1; 
0472:  MOVLW  01
0474:  SUBWF  xEC,W
0476:  ADDWF  xEE,F
....................    lcd_send_byte(0,0x80|address); 
0478:  MOVF   xEE,W
047A:  IORLW  80
047C:  MOVWF  xEF
047E:  CLRF   xF0
0480:  MOVWF  xF1
0482:  RCALL  03A2
....................  
....................   #if defined(LCD_EXTENDED_NEWLINE) 
0484:  RETURN 0
....................    g_LcdX = x - 1; 
....................    g_LcdY = y - 1; 
....................   #endif 
.................... } 
....................  
.................... void lcd_putc(char c) 
.................... { 
....................    switch (c) 
0486:  MOVF   xEB,W
0488:  XORLW  07
048A:  BZ    049A
048C:  XORLW  0B
048E:  BZ    04A4
0490:  XORLW  06
0492:  BZ    04B4
0494:  XORLW  02
0496:  BZ    04C0
0498:  BRA    04CA
....................    { 
....................       case '\a'   :  lcd_gotoxy(1,1);     break; 
049A:  MOVLW  01
049C:  MOVWF  xEC
049E:  MOVWF  xED
04A0:  RCALL  0464
04A2:  BRA    04D4
....................  
....................       case '\f'   :  lcd_send_byte(0,1); 
04A4:  CLRF   xF0
04A6:  MOVLW  01
04A8:  MOVWF  xF1
04AA:  RCALL  03A2
....................                      delay_ms(2); 
04AC:  MOVLW  02
04AE:  MOVWF  xEC
04B0:  RCALL  02A0
....................                     #if defined(LCD_EXTENDED_NEWLINE) 
....................                      g_LcdX = 0; 
....................                      g_LcdY = 0; 
....................                     #endif 
....................                      break; 
04B2:  BRA    04D4
....................  
....................      #if defined(LCD_EXTENDED_NEWLINE) 
....................       case '\r'   :  lcd_gotoxy(1, g_LcdY+1);   break; 
....................       case '\n'   : 
....................          while (g_LcdX++ < LCD_LINE_LENGTH) 
....................          { 
....................             lcd_send_byte(1, ' '); 
....................          } 
....................          lcd_gotoxy(1, g_LcdY+2); 
....................          break; 
....................      #else 
....................       case '\n'   : lcd_gotoxy(1,2);        break; 
04B4:  MOVLW  01
04B6:  MOVWF  xEC
04B8:  MOVLW  02
04BA:  MOVWF  xED
04BC:  RCALL  0464
04BE:  BRA    04D4
....................      #endif 
....................       
....................       case '\b'   : lcd_send_byte(0,0x10);  break; 
04C0:  CLRF   xF0
04C2:  MOVLW  10
04C4:  MOVWF  xF1
04C6:  RCALL  03A2
04C8:  BRA    04D4
....................       
....................      #if defined(LCD_EXTENDED_NEWLINE) 
....................       default     :  
....................          if (g_LcdX < LCD_LINE_LENGTH) 
....................          { 
....................             lcd_send_byte(1, c); 
....................             g_LcdX++; 
....................          } 
....................          break; 
....................      #else 
....................       default     : lcd_send_byte(1,c);     break; 
04CA:  MOVLW  01
04CC:  MOVWF  xF0
04CE:  MOVFF  EB,F1
04D2:  RCALL  03A2
....................      #endif 
....................    } 
04D4:  RETURN 0
.................... } 
....................   
.................... char lcd_getc(unsigned int8 x, unsigned int8 y) 
.................... { 
....................    char value; 
....................  
....................    lcd_gotoxy(x,y); 
....................    while ( bit_test(lcd_read_byte(),7) ); // wait until busy flag is low 
....................    lcd_output_rs(1); 
....................    value = lcd_read_byte(); 
....................    lcd_output_rs(0); 
....................     
....................    return(value); 
.................... } 
....................  
.................... // write a custom character to the ram 
.................... // which is 0-7 and specifies which character array we are modifying. 
.................... // ptr points to an array of 8 bytes, where each byte is the next row of 
.................... //    pixels.  only bits 0-4 are used.  the last row is the cursor row, and 
.................... //    usually you will want to leave this byte 0x00. 
.................... void lcd_set_cgram_char(unsigned int8 which, unsigned int8 *ptr) 
.................... { 
....................    unsigned int i; 
....................  
....................    which <<= 3; 
....................    which &= 0x38; 
....................  
....................    lcd_send_byte(0, 0x40 | which);  //set cgram address 
....................  
....................    for(i=0; i<8; i++) 
....................    { 
....................       lcd_send_byte(1, *ptr++); 
....................    } 
....................    
....................    #if defined(LCD_EXTENDED_NEWLINE) 
....................     lcd_gotoxy(g_LcdX+1, g_LcdY+1);  //set ddram address 
....................    #endif 
.................... } 
....................  
.................... void lcd_cursor_on(int1 on) 
.................... { 
....................    if (on) 
....................    { 
....................       lcd_send_byte(0,0x0F);           //turn LCD cursor ON 
....................    } 
....................    else 
....................    { 
....................       lcd_send_byte(0,0x0C);           //turn LCD cursor OFF 
....................    } 
.................... } 
....................  
.................... #endif 
....................  
.................... #use fast_io(b) 
.................... #use fast_io(d) 
....................  
.................... #use rs232(baud=9600, xmit=pin_c6, rcv=pin_c7, parity=N, stop=1) 
*
3BCE:  BTFSS  F9E.4
3BD0:  BRA    3BCE
3BD2:  MOVWF  FAD
3BD4:  GOTO   4200 (RETURN)
.................... char sifre[131]={}; 
.................... int gunler(void); 
.................... void pazartesi1(int a);void sali1(int a); 
.................... void carsamba1(int a);void persembe1(int a); 
.................... void cuma1(int a);void cumartesi1(int a);void pazar1(int a); 
....................  
.................... void pazartesi2(int a);void sali2(int a); 
.................... void carsamba2(int a);void persembe2(int a); 
.................... void cuma2(int a);void cumartesi2(int a);void pazar2(int a); 
.................... void gun(int k); 
.................... void clock2 (int k); 
.................... void kontrol(void); 
.................... void sifreleme(int v,int z ); 
.................... void clock (int k); 
.................... char harf(int e); 
....................  
....................  
.................... char dene[1]; 
.................... int zaman[2]={},bugun[2]={}; 
.................... int ptesibas[2]={};int ptesibit[2]={};   //0.deger saat / 1.deger dakika 
.................... int salibas[2]={};int salibit[2]={}; 
.................... int carbas[2]={};int carbit[2]={}; 
.................... int perbas[2]={};int perbit[2]={}; 
.................... int cumabas[2]={};int cumabit[2]={}; 
.................... int ctesibas[2]={};int ctesibit[2]={}; 
.................... int pazarbas[2]={};int pazarbit[2]={}; 
....................  
.................... int ptesibas2[2]={};int ptesibit2[2]={};   //0.deger saat / 1.deger dakika 
.................... int salibas2[2]={};int salibit2[2]={}; 
.................... int carbas2[2]={};int carbit2[2]={}; 
.................... int perbas2[2]={};int perbit2[2]={}; 
.................... int cumabas2[2]={};int cumabit2[2]={}; 
.................... int ctesibas2[2]={};int ctesibit2[2]={}; 
.................... int pazarbas2[2]={};int pazarbit2[2]={}; 
....................  
....................  
.................... int key1,key2,key3,key4,key5,key6,key7,key8,key9,key10,key11,key12,key13,key14; 
.................... signed int i; 
.................... int j; 
.................... int saat=12,saat1=12; 
.................... int dakika=0,dakika1=0; 
.................... char c1,c2; 
.................... int f=0; 
.................... int yan; 
.................... int t=1; 
....................  
....................  
.................... void main() 
3BD8:  CLRF   FF8
3BDA:  BCF    FD0.7
3BDC:  BCF    FB8.3
3BDE:  MOVLW  19
3BE0:  MOVWF  FAF
3BE2:  MOVLW  A6
3BE4:  MOVWF  FAC
3BE6:  MOVLW  90
3BE8:  MOVWF  FAB
3BEA:  NOP   
3BEC:  NOP   
3BEE:  MOVLW  0C
3BF0:  MOVWF  xD4
3BF2:  MOVWF  xD5
3BF4:  CLRF   xD6
3BF6:  CLRF   xD7
3BF8:  CLRF   xDA
3BFA:  MOVLW  01
3BFC:  MOVWF  xDC
3BFE:  CLRF   xDE
3C00:  CLRF   xDD
3C02:  MOVF   FC1,W
3C04:  ANDLW  C0
3C06:  IORLW  0F
3C08:  MOVWF  FC1
3C0A:  MOVLW  07
3C0C:  MOVWF  FB4
3C0E:  BRA    3C1A
3C10:  DATA 83,40
3C12:  DATA 04,00
3C14:  DATA 3C,40
3C16:  DATA 88,00
3C18:  DATA 00,00
3C1A:  MOVLW  00
3C1C:  MOVWF  FF8
3C1E:  MOVLW  3C
3C20:  MOVWF  FF7
3C22:  MOVLW  10
3C24:  MOVWF  FF6
3C26:  TBLRD*+
3C28:  MOVF   FF5,W
3C2A:  MOVWF  00
3C2C:  XORLW  00
3C2E:  BZ    3C56
3C30:  TBLRD*+
3C32:  MOVF   FF5,W
3C34:  MOVWF  01
3C36:  BTFSC  FE8.7
3C38:  BRA    3C44
3C3A:  ANDLW  0F
3C3C:  MOVWF  FEA
3C3E:  TBLRD*+
3C40:  MOVFF  FF5,FE9
3C44:  BTFSC  01.6
3C46:  TBLRD*+
3C48:  BTFSS  01.6
3C4A:  TBLRD*+
3C4C:  MOVFF  FF5,FEE
3C50:  DCFSNZ 00,F
3C52:  BRA    3C26
3C54:  BRA    3C48
3C56:  CLRF   FF8
.................... { 
....................    port_b_pullups(TRUE); 
3C58:  BCF    FF1.7
....................    // setup_psp(PSP_DISABLED); 
....................    setup_adc_ports(NO_ANALOGS); 
3C5A:  MOVF   FC1,W
3C5C:  ANDLW  C0
3C5E:  IORLW  0F
3C60:  MOVWF  FC1
....................    setup_adc(ADC_OFF); 
3C62:  BCF    FC2.0
....................    setup_CCP1(CCP_OFF); 
3C64:  MOVLW  F0
3C66:  ANDWF  FBD,F
....................    setup_CCP2(CCP_OFF);    
3C68:  ANDWF  FBA,F
....................    set_tris_b(0xFF); 
3C6A:  MOVLW  FF
3C6C:  MOVWF  F93
....................    output_b(0X00); 
3C6E:  CLRF   F8A
....................    set_tris_d(0x00); 
3C70:  MOVLW  00
3C72:  MOVWF  F95
....................    output_d(0X00); 
3C74:  CLRF   F8C
....................    disable_interrupts(GLOBAL); 
3C76:  BCF    FF2.6
3C78:  BCF    FF2.7
3C7A:  BTFSC  FF2.7
3C7C:  BRA    3C78
....................    lcd_init(); 
3C7E:  GOTO   03E8
....................    i=0; 
3C82:  CLRF   xD2
.................... while(TRUE) 
.................... { 
....................    if(input(pin_b3)==0)//                    GUNLERI YUKARI SAY BUTONU 
3C84:  BTFSC  F81.3
3C86:  BRA    3CA0
....................    {   
....................       delay_ms(20); 
3C88:  MOVLW  14
3C8A:  MOVWF  xEC
3C8C:  CALL   02A0
....................       while(input(pin_b3)==0); 
3C90:  BTFSS  F81.3
3C92:  BRA    3C90
....................       i++; 
3C94:  INCF   xD2,F
....................       if(i==9) 
3C96:  MOVF   xD2,W
3C98:  SUBLW  09
3C9A:  BNZ   3CA0
....................       {i=1;} 
3C9C:  MOVLW  01
3C9E:  MOVWF  xD2
....................    } 
....................    if(input(pin_b4)==0)//                    GUNLERI ASAGI SAY BUTONU 
3CA0:  BTFSC  F81.4
3CA2:  BRA    3CC0
....................    { 
....................       delay_ms(20); 
3CA4:  MOVLW  14
3CA6:  MOVWF  xEC
3CA8:  CALL   02A0
....................       while(input(pin_b4)==0); 
3CAC:  BTFSS  F81.4
3CAE:  BRA    3CAC
....................       i--; 
3CB0:  DECF   xD2,F
....................       if(i==0) 
3CB2:  MOVF   xD2,F
3CB4:  BNZ   3CBA
....................       {i=8;} 
3CB6:  MOVLW  08
3CB8:  MOVWF  xD2
....................       if(i<0) 
3CBA:  BTFSS  xD2.7
3CBC:  BRA    3CC0
....................       {i=0;} 
3CBE:  CLRF   xD2
....................    } 
....................  
....................    if(i==0)//                             ILK ACILIS EKRANI                                      
3CC0:  MOVF   xD2,F
3CC2:  BNZ   3CEC
....................    { 
....................       printf(lcd_putc,"\f"); 
3CC4:  MOVLW  0C
3CC6:  MOVWF  xEB
3CC8:  CALL   0486
....................       lcd_gotoxy(6,1);//LCD belirtilen satýr ve sütuna git komutu 
3CCC:  MOVLW  06
3CCE:  MOVWF  xEC
3CD0:  MOVLW  01
3CD2:  MOVWF  xED
3CD4:  CALL   0464
....................       printf(lcd_putc,"NEHIR AIR"); 
3CD8:  MOVLW  04
3CDA:  MOVWF  FF6
3CDC:  MOVLW  00
3CDE:  MOVWF  FF7
3CE0:  CALL   04D6
....................       delay_ms(100); 
3CE4:  MOVLW  64
3CE6:  MOVWF  xEC
3CE8:  CALL   02A0
....................    } 
....................    
.................... //************************************************* PAZARTESI  MAIN FONKSIYONU*******************************************       
....................    if(i==1)//                            PAZARTESI 1 DEGERI 
3CEC:  DECFSZ xD2,W
3CEE:  BRA    3D72
....................    {      
....................       if(f==0)//                          PAZARTESI 1 FONKSIYONUNA GIRISI 
3CF0:  MOVF   xDA,F
3CF2:  BNZ   3D14
....................       { 
....................          lcd_gotoxy(4,1);//LCD belirtilen satýr ve sütuna git komutu 
3CF4:  MOVLW  04
3CF6:  MOVWF  xEC
3CF8:  MOVLW  01
3CFA:  MOVWF  xED
3CFC:  CALL   0464
....................          printf(lcd_putc,"\f PAZARTESI"); 
3D00:  MOVLW  0E
3D02:  MOVWF  FF6
3D04:  MOVLW  00
3D06:  MOVWF  FF7
3D08:  CALL   04D6
....................          delay_ms(100); 
3D0C:  MOVLW  64
3D0E:  MOVWF  xEC
3D10:  CALL   02A0
....................       } 
....................           
....................       if(input(pin_b5)==0)//OKEY VERILIRSE PAZARTESI 1  AYARLARINA GIR 
3D14:  BTFSC  F81.5
3D16:  BRA    3D5E
....................       {    
....................          delay_ms(20); 
3D18:  MOVLW  14
3D1A:  MOVWF  xEC
3D1C:  CALL   02A0
....................          while(input(pin_b5)==0); 
3D20:  BTFSS  F81.5
3D22:  BRA    3D20
....................          pazartesi1(0);//******************************** PAZARTESI 1  FONKSIYONU CAGRILIR  
3D24:  CLRF   xE1
3D26:  GOTO   2814
....................           
....................          if(ptesibas[0]>=ptesibit[0])// baslangýç saatibitiþ saatinden büyükse ertesi güne sarkar 
3D2A:  MOVF   x8E,W
3D2C:  SUBWF  x8C,W
3D2E:  BNC   3D44
....................          { 
....................             sali2(0); 
3D30:  CLRF   xE1
3D32:  GOTO   29DC
....................             sifreleme(4,1); 
3D36:  MOVLW  04
3D38:  MOVWF  xE4
3D3A:  MOVLW  01
3D3C:  MOVWF  xE5
3D3E:  CALL   08D0
....................          } 
3D42:  BRA    3D56
....................          else 
....................          { 
....................             sifreleme(4,0);// SALI 2 GUNU KAPALI SIFRELEME-SOL GUN KODU-SAG ACIK/KAPALI KODU 
3D44:  MOVLW  04
3D46:  MOVWF  xE4
3D48:  CLRF   xE5
3D4A:  CALL   08D0
....................             delay_ms(20); 
3D4E:  MOVLW  14
3D50:  MOVWF  xEC
3D52:  CALL   02A0
....................          }            
....................          delay_ms(100);  
3D56:  MOVLW  64
3D58:  MOVWF  xEC
3D5A:  CALL   02A0
....................       } 
....................           
....................       if(f==1)//                        PAZARTESI 1 FONKSIYONUNDAN CIKISI                 
3D5E:  DECFSZ xDA,W
3D60:  BRA    3D72
....................       {   
....................          sifreleme(1,1);//ilk deger gün kodu 2. deger acýk/kapalý kodu, 0 kapalý/1 acik 
3D62:  MOVLW  01
3D64:  MOVWF  xE4
3D66:  MOVWF  xE5
3D68:  CALL   08D0
....................          f=0; 
3D6C:  CLRF   xDA
....................          i=2;   
3D6E:  MOVLW  02
3D70:  MOVWF  xD2
....................       }  
....................    } 
....................                 
.................... //************************************************* SALI  MAIN FONKSIYONU*******************************************       
....................        
....................    if(i==2)//                            SALI 1 DEGERI 
3D72:  MOVF   xD2,W
3D74:  SUBLW  02
3D76:  BNZ   3DFC
....................    {      
....................       if(f==0)//                          SALI 1 FONKSIYONUNA GIRISI 
3D78:  MOVF   xDA,F
3D7A:  BNZ   3D9C
....................       { 
....................          lcd_gotoxy(4,1);//LCD belirtilen satýr ve sütuna git komutu 
3D7C:  MOVLW  04
3D7E:  MOVWF  xEC
3D80:  MOVLW  01
3D82:  MOVWF  xED
3D84:  CALL   0464
....................          printf(lcd_putc,"\f SALI"); 
3D88:  MOVLW  1A
3D8A:  MOVWF  FF6
3D8C:  MOVLW  00
3D8E:  MOVWF  FF7
3D90:  CALL   04D6
....................          delay_ms(100); 
3D94:  MOVLW  64
3D96:  MOVWF  xEC
3D98:  CALL   02A0
....................       } 
....................           
....................       if(input(pin_b5)==0)//OKEY VERILIRSE SALI 1  AYARLARINA GIR 
3D9C:  BTFSC  F81.5
3D9E:  BRA    3DE6
....................       {    
....................          delay_ms(20); 
3DA0:  MOVLW  14
3DA2:  MOVWF  xEC
3DA4:  CALL   02A0
....................          while(input(pin_b5)==0); 
3DA8:  BTFSS  F81.5
3DAA:  BRA    3DA8
....................          sali1(0);//******************************** SALI 1  FONKSIYONU CAGRILIR  
3DAC:  CLRF   xE1
3DAE:  GOTO   29FE
....................  
....................          if(salibas[0]>=salibit[0])// baslangýç saatibitiþ saatinden büyükse ertesi güne sarkar 
3DB2:  MOVF   x92,W
3DB4:  SUBWF  x90,W
3DB6:  BNC   3DCC
....................          { 
....................             carsamba2(0); 
3DB8:  CLRF   xE1
3DBA:  GOTO   2BC6
....................             sifreleme(6,1); 
3DBE:  MOVLW  06
3DC0:  MOVWF  xE4
3DC2:  MOVLW  01
3DC4:  MOVWF  xE5
3DC6:  CALL   08D0
....................          } 
3DCA:  BRA    3DDE
....................          else 
....................          { 
....................             sifreleme(6,0);// CARSAMBA 2 GUNU KAPALI SIFRELEME-SOL GUN KODU-SAG ACIK/KAPALI KODU 
3DCC:  MOVLW  06
3DCE:  MOVWF  xE4
3DD0:  CLRF   xE5
3DD2:  CALL   08D0
....................             delay_ms(20); 
3DD6:  MOVLW  14
3DD8:  MOVWF  xEC
3DDA:  CALL   02A0
....................          }            
....................          delay_ms(100);  
3DDE:  MOVLW  64
3DE0:  MOVWF  xEC
3DE2:  CALL   02A0
....................       } 
....................           
....................       if(f==1)//                        SALI 1 FONKSIYONUNDAN CIKISI                 
3DE6:  DECFSZ xDA,W
3DE8:  BRA    3DFC
....................       {   
....................          sifreleme(3,1);//ilk deger gün kodu 2. deger acýk/kapalý kodu, 0 kapalý/1 acik 
3DEA:  MOVLW  03
3DEC:  MOVWF  xE4
3DEE:  MOVLW  01
3DF0:  MOVWF  xE5
3DF2:  CALL   08D0
....................          f=0; 
3DF6:  CLRF   xDA
....................          i=3;   
3DF8:  MOVLW  03
3DFA:  MOVWF  xD2
....................       }    
....................    }   
....................       
.................... //************************************************* CARSAMBA  MAIN FONKSIYONU*******************************************       
....................        
....................    if(i==3)//                            CARSAMBA 1 DEGERI 
3DFC:  MOVF   xD2,W
3DFE:  SUBLW  03
3E00:  BNZ   3E86
....................    {    
....................       if(f==0)//                          CARSAMBA 1 FONKSIYONUNA GIRISI 
3E02:  MOVF   xDA,F
3E04:  BNZ   3E26
....................       { 
....................          lcd_gotoxy(4,1);//LCD belirtilen satýr ve sütuna git komutu 
3E06:  MOVLW  04
3E08:  MOVWF  xEC
3E0A:  MOVLW  01
3E0C:  MOVWF  xED
3E0E:  CALL   0464
....................          printf(lcd_putc,"\f CARSAMBA"); 
3E12:  MOVLW  22
3E14:  MOVWF  FF6
3E16:  MOVLW  00
3E18:  MOVWF  FF7
3E1A:  CALL   04D6
....................          delay_ms(100); 
3E1E:  MOVLW  64
3E20:  MOVWF  xEC
3E22:  CALL   02A0
....................       } 
....................           
....................       if(input(pin_b5)==0)//OKEY VERILIRSE CARSAMBA 1  AYARLARINA GIR 
3E26:  BTFSC  F81.5
3E28:  BRA    3E70
....................       {    
....................          delay_ms(20); 
3E2A:  MOVLW  14
3E2C:  MOVWF  xEC
3E2E:  CALL   02A0
....................          while(input(pin_b5)==0); 
3E32:  BTFSS  F81.5
3E34:  BRA    3E32
....................          carsamba1(0);//******************************** CARSAMBA 1  FONKSIYONU CAGRILIR  
3E36:  CLRF   xE1
3E38:  GOTO   2BE8
....................              
....................          if(carbas[0]>=carbit[0])// baslangýç saatibitiþ saatinden büyükse ertesi güne sarkar 
3E3C:  MOVF   x96,W
3E3E:  SUBWF  x94,W
3E40:  BNC   3E56
....................          { 
....................             persembe2(0); 
3E42:  CLRF   xE1
3E44:  GOTO   2DB0
....................             sifreleme(8,1); 
3E48:  MOVLW  08
3E4A:  MOVWF  xE4
3E4C:  MOVLW  01
3E4E:  MOVWF  xE5
3E50:  CALL   08D0
....................          } 
3E54:  BRA    3E68
....................          else 
....................          { 
....................             sifreleme(8,0);// PERSEMBE 2 GUNU KAPALI SIFRELEME-SOL GUN KODU-SAG ACIK/KAPALI KODU 
3E56:  MOVLW  08
3E58:  MOVWF  xE4
3E5A:  CLRF   xE5
3E5C:  CALL   08D0
....................             delay_ms(20); 
3E60:  MOVLW  14
3E62:  MOVWF  xEC
3E64:  CALL   02A0
....................          }            
....................             delay_ms(100);  
3E68:  MOVLW  64
3E6A:  MOVWF  xEC
3E6C:  CALL   02A0
....................       } 
....................           
....................       if(f==1)//                        CARSAMBA 1 FONKSIYONUNDAN CIKISI                 
3E70:  DECFSZ xDA,W
3E72:  BRA    3E86
....................       {   
....................          sifreleme(5,1);//ilk deger gün kodu 2. deger acýk/kapalý kodu, 0 kapalý/1 acik 
3E74:  MOVLW  05
3E76:  MOVWF  xE4
3E78:  MOVLW  01
3E7A:  MOVWF  xE5
3E7C:  CALL   08D0
....................          f=0; 
3E80:  CLRF   xDA
....................          i=4;   
3E82:  MOVLW  04
3E84:  MOVWF  xD2
....................       }    
....................    }   
....................                  
.................... //************************************************* PERSEMBE  MAIN FONKSIYONU*******************************************       
....................        
....................    if(i==4)//                            PERSEMBE 1  DEGERI 
3E86:  MOVF   xD2,W
3E88:  SUBLW  04
3E8A:  BNZ   3F10
....................    {    
....................       if(f==0)//                          PERSEMBE 1  FONKSIYONUNA GIRISI 
3E8C:  MOVF   xDA,F
3E8E:  BNZ   3EB0
....................       { 
....................          lcd_gotoxy(4,1);//LCD belirtilen satýr ve sütuna git komutu 
3E90:  MOVLW  04
3E92:  MOVWF  xEC
3E94:  MOVLW  01
3E96:  MOVWF  xED
3E98:  CALL   0464
....................          printf(lcd_putc,"\f PERSEMBE "); 
3E9C:  MOVLW  2E
3E9E:  MOVWF  FF6
3EA0:  MOVLW  00
3EA2:  MOVWF  FF7
3EA4:  CALL   04D6
....................          delay_ms(100); 
3EA8:  MOVLW  64
3EAA:  MOVWF  xEC
3EAC:  CALL   02A0
....................       } 
....................           
....................       if(input(pin_b5)==0)//OKEY VERILIRSE CARSAMBA 1  AYARLARINA GIR 
3EB0:  BTFSC  F81.5
3EB2:  BRA    3EFA
....................       {    
....................          delay_ms(20); 
3EB4:  MOVLW  14
3EB6:  MOVWF  xEC
3EB8:  CALL   02A0
....................          while(input(pin_b5)==0); 
3EBC:  BTFSS  F81.5
3EBE:  BRA    3EBC
....................          persembe1(0);//******************************** CARSAMBA 1  FONKSIYONU CAGRILIR  
3EC0:  CLRF   xE1
3EC2:  GOTO   2DD2
....................           
....................          if(perbas[0]>=perbit[0])// baslangýç saatibitiþ saatinden büyükse ertesi güne sarkar 
3EC6:  MOVF   x9A,W
3EC8:  SUBWF  x98,W
3ECA:  BNC   3EE0
....................          { 
....................             cuma2(0); 
3ECC:  CLRF   xE1
3ECE:  GOTO   2F9A
....................             sifreleme(10,1); 
3ED2:  MOVLW  0A
3ED4:  MOVWF  xE4
3ED6:  MOVLW  01
3ED8:  MOVWF  xE5
3EDA:  CALL   08D0
....................          } 
3EDE:  BRA    3EF2
....................          else 
....................          { 
....................             sifreleme(10,0);// CUMA 2 GUNU KAPALI SIFRELEME-SOL GUN KODU-SAG ACIK/KAPALI KODU 
3EE0:  MOVLW  0A
3EE2:  MOVWF  xE4
3EE4:  CLRF   xE5
3EE6:  CALL   08D0
....................             delay_ms(20); 
3EEA:  MOVLW  14
3EEC:  MOVWF  xEC
3EEE:  CALL   02A0
....................          }            
....................             delay_ms(100);  
3EF2:  MOVLW  64
3EF4:  MOVWF  xEC
3EF6:  CALL   02A0
....................       } 
....................           
....................       if(f==1)//                        PERSEMBE 1  FONKSIYONUNDAN CIKISI                 
3EFA:  DECFSZ xDA,W
3EFC:  BRA    3F10
....................       {   
....................          sifreleme(7,1);//ilk deger gün kodu 2. deger acýk/kapalý kodu, 0 kapalý/1 acik 
3EFE:  MOVLW  07
3F00:  MOVWF  xE4
3F02:  MOVLW  01
3F04:  MOVWF  xE5
3F06:  CALL   08D0
....................          f=0; 
3F0A:  CLRF   xDA
....................          i=5;   
3F0C:  MOVLW  05
3F0E:  MOVWF  xD2
....................       }   
....................    }   
....................           
.................... //************************************************* CUMA  MAIN FONKSIYONU******************************************* 
....................        
....................    if(i==5)//                            CUMA 1  DEGERI 
3F10:  MOVF   xD2,W
3F12:  SUBLW  05
3F14:  BNZ   3F9A
....................    {   
....................       if(f==0)//                          CUMA 1  FONKSIYONUNA GIRISI 
3F16:  MOVF   xDA,F
3F18:  BNZ   3F3A
....................       { 
....................          lcd_gotoxy(4,1);//LCD belirtilen satýr ve sütuna git komutu 
3F1A:  MOVLW  04
3F1C:  MOVWF  xEC
3F1E:  MOVLW  01
3F20:  MOVWF  xED
3F22:  CALL   0464
....................          printf(lcd_putc,"\f CUMA "); 
3F26:  MOVLW  3A
3F28:  MOVWF  FF6
3F2A:  MOVLW  00
3F2C:  MOVWF  FF7
3F2E:  CALL   04D6
....................          delay_ms(100); 
3F32:  MOVLW  64
3F34:  MOVWF  xEC
3F36:  CALL   02A0
....................       } 
....................           
....................       if(input(pin_b5)==0)//OKEY VERILIRSE CARSAMBA 1  AYARLARINA GIR 
3F3A:  BTFSC  F81.5
3F3C:  BRA    3F84
....................       {    
....................          delay_ms(20); 
3F3E:  MOVLW  14
3F40:  MOVWF  xEC
3F42:  CALL   02A0
....................          while(input(pin_b5)==0); 
3F46:  BTFSS  F81.5
3F48:  BRA    3F46
....................          cuma1(0);//******************************** CARSAMBA 1  FONKSIYONU CAGRILIR  
3F4A:  CLRF   xE1
3F4C:  GOTO   2FBC
....................           
....................          if(cumabas[0]>=cumabit[0])// baslangýç saatibitiþ saatinden büyükse ertesi güne sarkar 
3F50:  MOVF   x9E,W
3F52:  SUBWF  x9C,W
3F54:  BNC   3F6A
....................          { 
....................             cumartesi2(0); 
3F56:  CLRF   xE1
3F58:  GOTO   3184
....................             sifreleme(12,1); 
3F5C:  MOVLW  0C
3F5E:  MOVWF  xE4
3F60:  MOVLW  01
3F62:  MOVWF  xE5
3F64:  CALL   08D0
....................          } 
3F68:  BRA    3F7C
....................          else 
....................          { 
....................             sifreleme(12,0);// CUMARTESI 2 GUNU KAPALI SIFRELEME-SOL GUN KODU-SAG ACIK/KAPALI KODU 
3F6A:  MOVLW  0C
3F6C:  MOVWF  xE4
3F6E:  CLRF   xE5
3F70:  CALL   08D0
....................             delay_ms(20); 
3F74:  MOVLW  14
3F76:  MOVWF  xEC
3F78:  CALL   02A0
....................          }            
....................           delay_ms(100);  
3F7C:  MOVLW  64
3F7E:  MOVWF  xEC
3F80:  CALL   02A0
....................       } 
....................        
....................       if(f==1)//                        CUMA 1  FONKSIYONUNDAN CIKISI                 
3F84:  DECFSZ xDA,W
3F86:  BRA    3F9A
....................       {   
....................          sifreleme(9,1);//ilk deger gün kodu 2. deger acýk/kapalý kodu, 0 kapalý/1 acik 
3F88:  MOVLW  09
3F8A:  MOVWF  xE4
3F8C:  MOVLW  01
3F8E:  MOVWF  xE5
3F90:  CALL   08D0
....................          f=0; 
3F94:  CLRF   xDA
....................          i=6;   
3F96:  MOVLW  06
3F98:  MOVWF  xD2
....................       }     
....................    }  
....................              
.................... //************************************************* CUMARTESI  MAIN FONKSIYONU******************************************* 
....................        
....................    if(i==6)//                            CUMARTESI 1  DEGERI 
3F9A:  MOVF   xD2,W
3F9C:  SUBLW  06
3F9E:  BNZ   4024
....................    {   
....................       if(f==0)//                          CUMARTESI 1  FONKSIYONUNA GIRISI 
3FA0:  MOVF   xDA,F
3FA2:  BNZ   3FC4
....................       { 
....................          lcd_gotoxy(4,1);//LCD belirtilen satýr ve sütuna git komutu 
3FA4:  MOVLW  04
3FA6:  MOVWF  xEC
3FA8:  MOVLW  01
3FAA:  MOVWF  xED
3FAC:  CALL   0464
....................          printf(lcd_putc,"\f CUMARTESI "); 
3FB0:  MOVLW  42
3FB2:  MOVWF  FF6
3FB4:  MOVLW  00
3FB6:  MOVWF  FF7
3FB8:  CALL   04D6
....................          delay_ms(100); 
3FBC:  MOVLW  64
3FBE:  MOVWF  xEC
3FC0:  CALL   02A0
....................       } 
....................           
....................       if(input(pin_b5)==0)//OKEY VERILIRSE CARSAMBA 1  AYARLARINA GIR 
3FC4:  BTFSC  F81.5
3FC6:  BRA    400E
....................       {    
....................          delay_ms(20); 
3FC8:  MOVLW  14
3FCA:  MOVWF  xEC
3FCC:  CALL   02A0
....................          while(input(pin_b5)==0); 
3FD0:  BTFSS  F81.5
3FD2:  BRA    3FD0
....................          cumartesi1(0);//******************************** CARSAMBA 1  FONKSIYONU CAGRILIR  
3FD4:  CLRF   xE1
3FD6:  GOTO   31A6
....................           
....................          if(ctesibas[0]>=ctesibit[0])// baslangýç saatibitiþ saatinden büyükse ertesi güne sarkar 
3FDA:  MOVF   xA2,W
3FDC:  SUBWF  xA0,W
3FDE:  BNC   3FF4
....................          { 
....................             pazar2(0); 
3FE0:  CLRF   xE1
3FE2:  GOTO   336E
....................             sifreleme(14,1); 
3FE6:  MOVLW  0E
3FE8:  MOVWF  xE4
3FEA:  MOVLW  01
3FEC:  MOVWF  xE5
3FEE:  CALL   08D0
....................          } 
3FF2:  BRA    4006
....................          else 
....................          { 
....................             sifreleme(14,0);// PAZAR 2 GUNU KAPALI SIFRELEME-SOL GUN KODU-SAG ACIK/KAPALI KODU 
3FF4:  MOVLW  0E
3FF6:  MOVWF  xE4
3FF8:  CLRF   xE5
3FFA:  CALL   08D0
....................             delay_ms(20); 
3FFE:  MOVLW  14
4000:  MOVWF  xEC
4002:  CALL   02A0
....................          }            
....................          delay_ms(100);  
4006:  MOVLW  64
4008:  MOVWF  xEC
400A:  CALL   02A0
....................       } 
....................           
....................       if(f==1)//                        CUMARTESI 1  FONKSIYONUNDAN CIKISI                 
400E:  DECFSZ xDA,W
4010:  BRA    4024
....................       {   
....................          sifreleme(11,1);//ilk deger gün kodu 2. deger acýk/kapalý kodu, 0 kapalý/1 acik 
4012:  MOVLW  0B
4014:  MOVWF  xE4
4016:  MOVLW  01
4018:  MOVWF  xE5
401A:  CALL   08D0
....................          f=0; 
401E:  CLRF   xDA
....................          i=7;   
4020:  MOVLW  07
4022:  MOVWF  xD2
....................       }    
....................    }  
....................              
.................... //************************************************* PAZAR  MAIN FONKSIYONU******************************************* 
....................        
....................    if(i==7)//                            PAZAR 1  DEGERI 
4024:  MOVF   xD2,W
4026:  SUBLW  07
4028:  BNZ   40AE
....................    {    
....................       if(f==0)//                          PAZAR 1  FONKSIYONUNA GIRISI 
402A:  MOVF   xDA,F
402C:  BNZ   404E
....................       { 
....................          lcd_gotoxy(4,1);//LCD belirtilen satýr ve sütuna git komutu 
402E:  MOVLW  04
4030:  MOVWF  xEC
4032:  MOVLW  01
4034:  MOVWF  xED
4036:  CALL   0464
....................          printf(lcd_putc,"\f PAZAR  "); 
403A:  MOVLW  50
403C:  MOVWF  FF6
403E:  MOVLW  00
4040:  MOVWF  FF7
4042:  CALL   04D6
....................          delay_ms(100); 
4046:  MOVLW  64
4048:  MOVWF  xEC
404A:  CALL   02A0
....................       } 
....................           
....................       if(input(pin_b5)==0)//OKEY VERILIRSE PAZAR 1  AYARLARINA GIR 
404E:  BTFSC  F81.5
4050:  BRA    4098
....................       {    
....................          delay_ms(20); 
4052:  MOVLW  14
4054:  MOVWF  xEC
4056:  CALL   02A0
....................          while(input(pin_b5)==0); 
405A:  BTFSS  F81.5
405C:  BRA    405A
....................          pazar1(0);//******************************** PAZAR 1  FONKSIYONU CAGRILIR  
405E:  CLRF   xE1
4060:  GOTO   3390
....................  
....................          if(pazarbas[0]>=pazarbit[0])// baslangýç saatibitiþ saatinden büyükse ertesi güne sarkar 
4064:  MOVF   xA6,W
4066:  SUBWF  xA4,W
4068:  BNC   407E
....................          { 
....................             pazartesi2(0); 
406A:  CLRF   xE1
406C:  GOTO   3558
....................             sifreleme(2,1); 
4070:  MOVLW  02
4072:  MOVWF  xE4
4074:  MOVLW  01
4076:  MOVWF  xE5
4078:  CALL   08D0
....................          } 
407C:  BRA    4090
....................          else 
....................          { 
....................             sifreleme(2,0);// PAZARTESI 2 GUNU KAPALI SIFRELEME-SOL GUN KODU-SAG ACIK/KAPALI KODU 
407E:  MOVLW  02
4080:  MOVWF  xE4
4082:  CLRF   xE5
4084:  CALL   08D0
....................             delay_ms(20); 
4088:  MOVLW  14
408A:  MOVWF  xEC
408C:  CALL   02A0
....................          }            
....................          delay_ms(100);  
4090:  MOVLW  64
4092:  MOVWF  xEC
4094:  CALL   02A0
....................       } 
....................           
....................       if(f==1)//                        PAZAR 1  FONKSIYONUNDAN CIKISI                 
4098:  DECFSZ xDA,W
409A:  BRA    40AE
....................       {   
....................          sifreleme(13,1);//ilk deger gün kodu 2. deger acýk/kapalý kodu, 0 kapalý/1 acik 
409C:  MOVLW  0D
409E:  MOVWF  xE4
40A0:  MOVLW  01
40A2:  MOVWF  xE5
40A4:  CALL   08D0
....................          f=0; 
40A8:  CLRF   xDA
....................          i=8;   
40AA:  MOVLW  08
40AC:  MOVWF  xD2
....................       }     
....................    }  
....................         
.................... //  *************************************************** GUN - SAAT AYARI *************************************************************** 
....................     
....................    if(i==8) 
40AE:  MOVF   xD2,W
40B0:  SUBLW  08
40B2:  BNZ   4174
....................    { 
....................       if(f==0)//                          GUN - SAAT AYARI  FONKSIYONUNA GIRISI 
40B4:  MOVF   xDA,F
40B6:  BNZ   40E0
....................       { 
....................          printf(lcd_putc,"\f"); 
40B8:  MOVLW  0C
40BA:  MOVWF  xEB
40BC:  CALL   0486
....................          lcd_gotoxy(6,1);//LCD belirtilen satýr ve sütuna git komutu 
40C0:  MOVLW  06
40C2:  MOVWF  xEC
40C4:  MOVLW  01
40C6:  MOVWF  xED
40C8:  CALL   0464
....................          printf(lcd_putc,"GUN AYARI"); 
40CC:  MOVLW  5A
40CE:  MOVWF  FF6
40D0:  MOVLW  00
40D2:  MOVWF  FF7
40D4:  CALL   04D6
....................          delay_ms(100); 
40D8:  MOVLW  64
40DA:  MOVWF  xEC
40DC:  CALL   02A0
....................       } 
....................       
....................      if(input(pin_b5)==0)//OKEY VERILIRSE GUN  AYARLARINA GIR 
40E0:  BTFSC  F81.5
40E2:  BRA    40F6
....................       {    
....................          delay_ms(20); 
40E4:  MOVLW  14
40E6:  MOVWF  xEC
40E8:  CALL   02A0
....................          while(input(pin_b5)==0); 
40EC:  BTFSS  F81.5
40EE:  BRA    40EC
....................          gun(0); 
40F0:  CLRF   xE1
40F2:  GOTO   357A
....................       } 
....................        
....................      if(f==1) 
40F6:  DECFSZ xDA,W
40F8:  BRA    4174
....................      { 
....................          printf(lcd_putc,"\f"); 
40FA:  MOVLW  0C
40FC:  MOVWF  xEB
40FE:  CALL   0486
....................          lcd_gotoxy(3,1);//LCD belirtilen satýr ve sütuna git komutu 
4102:  MOVLW  03
4104:  MOVWF  xEC
4106:  MOVLW  01
4108:  MOVWF  xED
410A:  CALL   0464
....................          printf(lcd_putc,"SAAT AYARI"); 
410E:  MOVLW  64
4110:  MOVWF  FF6
4112:  MOVLW  00
4114:  MOVWF  FF7
4116:  CALL   04D6
....................          delay_ms(100); 
411A:  MOVLW  64
411C:  MOVWF  xEC
411E:  CALL   02A0
....................          clock2(0); 
4122:  CLRF   xE1
4124:  GOTO   371C
....................           
....................          for(int x=0;x<2;x++) 
4128:  CLRF   xDF
412A:  MOVF   xDF,W
412C:  SUBLW  01
412E:  BNC   4162
....................          { 
....................             bugun[x]=zaman[x]; 
4130:  CLRF   03
4132:  MOVF   xDF,W
4134:  ADDLW  8A
4136:  MOVWF  01
4138:  MOVLW  00
413A:  ADDWFC 03,F
413C:  MOVFF  03,E2
4140:  CLRF   03
4142:  MOVF   xDF,W
4144:  ADDLW  88
4146:  MOVWF  FE9
4148:  MOVLW  00
414A:  ADDWFC 03,W
414C:  MOVWF  FEA
414E:  MOVFF  FEF,E3
4152:  MOVFF  E2,FEA
4156:  MOVFF  01,FE9
415A:  MOVFF  E3,FEF
415E:  INCF   xDF,F
4160:  BRA    412A
....................          } 
....................          sifreleme(15,1); 
4162:  MOVLW  0F
4164:  MOVWF  xE4
4166:  MOVLW  01
4168:  MOVWF  xE5
416A:  CALL   08D0
....................           
....................          f=0; 
416E:  CLRF   xDA
....................          i=9; 
4170:  MOVLW  09
4172:  MOVWF  xD2
....................      }  
....................    } 
....................     
....................    if(i==9)// SIFREYI GONDER BUTONU 
4174:  MOVF   xD2,W
4176:  SUBLW  09
4178:  BNZ   425A
....................    {     
....................       printf(lcd_putc,"\f"); 
417A:  MOVLW  0C
417C:  MOVWF  xEB
417E:  CALL   0486
....................       lcd_gotoxy(6,1);//LCD belirtilen satýr ve sütuna git komutu 
4182:  MOVLW  06
4184:  MOVWF  xEC
4186:  MOVLW  01
4188:  MOVWF  xED
418A:  CALL   0464
....................       printf(lcd_putc,"GONDER"); 
418E:  MOVLW  70
4190:  MOVWF  FF6
4192:  MOVLW  00
4194:  MOVWF  FF7
4196:  CALL   04D6
....................       delay_ms(100); 
419A:  MOVLW  64
419C:  MOVWF  xEC
419E:  CALL   02A0
....................       if(input(pin_b0)==0)//GONDER BUTONU 
41A2:  BTFSC  F81.0
41A4:  BRA    425A
....................       {   
....................          delay_ms(20); 
41A6:  MOVLW  14
41A8:  MOVWF  xEC
41AA:  CALL   02A0
....................          while(input(pin_b1)==0); 
41AE:  BTFSS  F81.1
41B0:  BRA    41AE
....................          kontrol(); 
41B2:  GOTO   3964
....................          printf(lcd_putc,"\f"); 
41B6:  MOVLW  0C
41B8:  MOVWF  xEB
41BA:  CALL   0486
....................          lcd_gotoxy(2,1);//LCD belirtilen satýr ve sütuna git komutu 
41BE:  MOVLW  02
41C0:  MOVWF  xEC
41C2:  MOVLW  01
41C4:  MOVWF  xED
41C6:  CALL   0464
....................          printf(lcd_putc,"GONDERILIYOR"); 
41CA:  MOVLW  78
41CC:  MOVWF  FF6
41CE:  MOVLW  00
41D0:  MOVWF  FF7
41D2:  CALL   04D6
....................          delay_ms(20); 
41D6:  MOVLW  14
41D8:  MOVWF  xEC
41DA:  CALL   02A0
....................          while(input(pin_b0)==0); 
41DE:  BTFSS  F81.0
41E0:  BRA    41DE
....................          for(int data=0;data<131;data++) 
41E2:  CLRF   xE0
41E4:  MOVF   xE0,W
41E6:  SUBLW  82
41E8:  BNC   420C
....................          { 
....................             putc(sifre[data]); 
41EA:  CLRF   03
41EC:  MOVF   xE0,W
41EE:  ADDLW  04
41F0:  MOVWF  FE9
41F2:  MOVLW  00
41F4:  ADDWFC 03,W
41F6:  MOVWF  FEA
41F8:  MOVFF  FEF,E1
41FC:  MOVF   xE1,W
41FE:  BRA    3BCE
....................             delay_ms(60); 
4200:  MOVLW  3C
4202:  MOVWF  xEC
4204:  CALL   02A0
4208:  INCF   xE0,F
420A:  BRA    41E4
....................          } 
....................          printf(lcd_putc,"\f"); 
420C:  MOVLW  0C
420E:  MOVWF  xEB
4210:  CALL   0486
....................          lcd_gotoxy(3,1);//LCD belirtilen satýr ve sütuna git komutu 
4214:  MOVLW  03
4216:  MOVWF  xEC
4218:  MOVLW  01
421A:  MOVWF  xED
421C:  CALL   0464
....................          printf(lcd_putc,"GONDERILDI"); 
4220:  MOVLW  86
4222:  MOVWF  FF6
4224:  MOVLW  00
4226:  MOVWF  FF7
4228:  CALL   04D6
....................          delay_ms(600); 
422C:  MOVLW  03
422E:  MOVWF  xE1
4230:  MOVLW  C8
4232:  MOVWF  xEC
4234:  CALL   02A0
4238:  DECFSZ xE1,F
423A:  BRA    4230
....................          key1=0,key2=0,key3=0,key4=0,key5=0,key6=0,key7=0,key8=0,key9=0,key10=0,key11=0,key12=0,key13=0,key14=0; 
423C:  CLRF   xC4
423E:  CLRF   xC5
4240:  CLRF   xC6
4242:  CLRF   xC7
4244:  CLRF   xC8
4246:  CLRF   xC9
4248:  CLRF   xCA
424A:  CLRF   xCB
424C:  CLRF   xCC
424E:  CLRF   xCD
4250:  CLRF   xCE
4252:  CLRF   xCF
4254:  CLRF   xD0
4256:  CLRF   xD1
....................          i=0;//GUNLER KISMINA GERI DONER 
4258:  CLRF   xD2
....................       }     
....................    }   
425A:  BRA    3C84
.................... } 
.................... }    // MAIN FONKSIYONU 
....................   
425C:  SLEEP 
....................  
.................... //******************************************************************************************** PAZARTESI 1 FONKSIYONU*************************************************************************** 
....................  
.................... void pazartesi1(int a) 
.................... {   
....................    while(a==0)///////////////////BU FONKSIYNA GIRIYOR ++++++++++++++++++++++++++++++++++++++++++++++++++++++++++++ 
*
2814:  MOVF   xE1,F
2816:  BTFSS  FD8.2
2818:  BRA    29D8
....................    {   
....................       lcd_gotoxy(3,2);//LCD belirtilen satýr ve sütuna git komutu 
281A:  MOVLW  03
281C:  MOVWF  xEC
281E:  MOVLW  02
2820:  MOVWF  xED
2822:  CALL   0464
....................       printf(lcd_putc,"ACIK/KAPALI"); 
2826:  MOVLW  92
2828:  MOVWF  FF6
282A:  MOVLW  00
282C:  MOVWF  FF7
282E:  CALL   04D6
....................       delay_ms(100); 
2832:  MOVLW  64
2834:  MOVWF  xEC
2836:  CALL   02A0
....................  
....................       if(input(pin_a0)==0)//ACIK BUTONUNA BASILINCA++++++++++++++++++++++++++++++++++++++++++++++++++++++++ 
283A:  BSF    F92.0
283C:  BTFSC  F80.0
283E:  BRA    2974
....................       {   
....................          delay_ms(20); 
2840:  MOVLW  14
2842:  MOVWF  xEC
2844:  CALL   02A0
....................          while(input(pin_a0)==0); 
2848:  BSF    F92.0
284A:  BTFSS  F80.0
284C:  BRA    2848
....................        
....................          key1=1; 
284E:  MOVLW  01
2850:  MOVWF  xC4
....................          printf(lcd_putc,"\f"); 
2852:  MOVLW  0C
2854:  MOVWF  xEB
2856:  CALL   0486
....................          lcd_gotoxy(4,1);//LCD belirtilen satýr ve sütuna git komutu 
285A:  MOVLW  04
285C:  MOVWF  xEC
285E:  MOVLW  01
2860:  MOVWF  xED
2862:  CALL   0464
....................          printf(lcd_putc,"PAZARTESI"); 
2866:  MOVLW  9E
2868:  MOVWF  FF6
286A:  MOVLW  00
286C:  MOVWF  FF7
286E:  CALL   04D6
....................           
....................          lcd_gotoxy(6,2);//LCD belirtilen satýr ve sütuna git komutu 
2872:  MOVLW  06
2874:  MOVWF  xEC
2876:  MOVLW  02
2878:  MOVWF  xED
287A:  CALL   0464
....................          printf(lcd_putc,"ACIK");          
287E:  MOVLW  A8
2880:  MOVWF  FF6
2882:  MOVLW  00
2884:  MOVWF  FF7
2886:  CALL   04D6
....................          delay_ms(700); 
288A:  MOVLW  04
288C:  MOVWF  xE4
288E:  MOVLW  AF
2890:  MOVWF  xEC
2892:  CALL   02A0
2896:  DECFSZ xE4,F
2898:  BRA    288E
....................           
....................          printf(lcd_putc,"\f");// \f komutu ile LCD silinir 
289A:  MOVLW  0C
289C:  MOVWF  xEB
289E:  CALL   0486
....................          lcd_gotoxy(1,1);//LCD belirtilen satýr ve sütuna git komutu 
28A2:  MOVLW  01
28A4:  MOVWF  xEC
28A6:  MOVWF  xED
28A8:  CALL   0464
....................          printf(lcd_putc,"BASLANGIC SAATI"); 
28AC:  MOVLW  AE
28AE:  MOVWF  FF6
28B0:  MOVLW  00
28B2:  MOVWF  FF7
28B4:  CALL   04D6
....................          delay_ms(5); 
28B8:  MOVLW  05
28BA:  MOVWF  xEC
28BC:  CALL   02A0
....................           
....................          //**************************************** CLOCK 1 
....................           
....................          clock (0);//BASLANGIC SAATI ICIN GONDERILDI 
28C0:  CLRF   xE4
28C2:  CALL   0672
....................          delay_ms(300); 
28C6:  MOVLW  02
28C8:  MOVWF  xE4
28CA:  MOVLW  96
28CC:  MOVWF  xEC
28CE:  CALL   02A0
28D2:  DECFSZ xE4,F
28D4:  BRA    28CA
....................           
....................          for(int x=0;x<2;x++)//baslangýc saatý genel dýzýden aktarýlýyor 
28D6:  CLRF   xE2
28D8:  MOVF   xE2,W
28DA:  SUBLW  01
28DC:  BNC   2910
....................          { 
....................             ptesibas[x]=zaman[x];//pazartesi baslangic degerleri kaydedildi 
28DE:  CLRF   03
28E0:  MOVF   xE2,W
28E2:  ADDLW  8C
28E4:  MOVWF  01
28E6:  MOVLW  00
28E8:  ADDWFC 03,F
28EA:  MOVFF  03,E5
28EE:  CLRF   03
28F0:  MOVF   xE2,W
28F2:  ADDLW  88
28F4:  MOVWF  FE9
28F6:  MOVLW  00
28F8:  ADDWFC 03,W
28FA:  MOVWF  FEA
28FC:  MOVFF  FEF,E6
2900:  MOVFF  E5,FEA
2904:  MOVFF  01,FE9
2908:  MOVFF  E6,FEF
290C:  INCF   xE2,F
290E:  BRA    28D8
....................          } 
....................             
....................          lcd_gotoxy(1,1);//LCD belirtilen satýr ve sütuna git komutu 
2910:  MOVLW  01
2912:  MOVWF  xEC
2914:  MOVWF  xED
2916:  CALL   0464
....................          printf(lcd_putc,"\f BITIS SAATI"); 
291A:  MOVLW  BE
291C:  MOVWF  FF6
291E:  MOVLW  00
2920:  MOVWF  FF7
2922:  CALL   04D6
....................          delay_ms(20); 
2926:  MOVLW  14
2928:  MOVWF  xEC
292A:  CALL   02A0
....................           
....................          //***************************************** CLOCK 2 
....................           
....................          clock (0);//BITIS SAATI ICIN GONDERILDI 
292E:  CLRF   xE4
2930:  CALL   0672
....................  
....................          for(int y=0;y<2;y++)//baslangýc saatý genel diziden aktarýlýyor 
2934:  CLRF   xE3
2936:  MOVF   xE3,W
2938:  SUBLW  01
293A:  BNC   296E
....................          { 
....................             ptesibit[y]=zaman[y];//pazartesi bitis degerleri kaydedildi 
293C:  CLRF   03
293E:  MOVF   xE3,W
2940:  ADDLW  8E
2942:  MOVWF  01
2944:  MOVLW  00
2946:  ADDWFC 03,F
2948:  MOVFF  03,E5
294C:  CLRF   03
294E:  MOVF   xE3,W
2950:  ADDLW  88
2952:  MOVWF  FE9
2954:  MOVLW  00
2956:  ADDWFC 03,W
2958:  MOVWF  FEA
295A:  MOVFF  FEF,E6
295E:  MOVFF  E5,FEA
2962:  MOVFF  01,FE9
2966:  MOVFF  E6,FEF
296A:  INCF   xE3,F
296C:  BRA    2936
....................          }   
....................  
....................            a=1; 
296E:  MOVLW  01
2970:  MOVWF  xE1
....................            f=1;    
2972:  MOVWF  xDA
....................       }  
....................        
....................       if(input(pin_a1)==0)//KAPALI BUTONUNA BASILINCA  
2974:  BSF    F92.1
2976:  BTFSC  F80.1
2978:  BRA    29D6
....................       { 
....................          delay_ms(20); 
297A:  MOVLW  14
297C:  MOVWF  xEC
297E:  CALL   02A0
....................          while(input(pin_a1)==0); 
2982:  BSF    F92.1
2984:  BTFSS  F80.1
2986:  BRA    2982
....................           
....................          key1=0; 
2988:  CLRF   xC4
....................          printf(lcd_putc,"\f"); 
298A:  MOVLW  0C
298C:  MOVWF  xEB
298E:  CALL   0486
....................          lcd_gotoxy(1,2);//LCD belirtilen satýr ve sütuna git komutu 
2992:  MOVLW  01
2994:  MOVWF  xEC
2996:  MOVLW  02
2998:  MOVWF  xED
299A:  CALL   0464
....................          printf(lcd_putc,"KAPALI"); 
299E:  MOVLW  CC
29A0:  MOVWF  FF6
29A2:  MOVLW  00
29A4:  MOVWF  FF7
29A6:  CALL   04D6
....................          delay_ms(500); 
29AA:  MOVLW  02
29AC:  MOVWF  xE4
29AE:  MOVLW  FA
29B0:  MOVWF  xEC
29B2:  CALL   02A0
29B6:  DECFSZ xE4,F
29B8:  BRA    29AE
....................          sifreleme(1,0);// PAZARTESI 1 GUNU KAPALI SIFRELEME-SOL GUN KODU-SAG ACIK/KAPALI KODU 
29BA:  MOVLW  01
29BC:  MOVWF  xE4
29BE:  CLRF   xE5
29C0:  CALL   08D0
....................          delay_ms(20); 
29C4:  MOVLW  14
29C6:  MOVWF  xEC
29C8:  CALL   02A0
....................          a=1; 
29CC:  MOVLW  01
29CE:  MOVWF  xE1
....................          i=2; 
29D0:  MOVLW  02
29D2:  MOVWF  xD2
....................          f=0; 
29D4:  CLRF   xDA
....................       } 
29D6:  BRA    2814
....................    } 
29D8:  GOTO   3D2A (RETURN)
.................... } 
....................  
.................... //******************************************************************************************** PAZARTESI 2 FONKSIYONU*************************************************************************** 
.................... void pazartesi2(int a) 
.................... {   
....................    while(a==0)///////////////////BU FONKSIYNA GIRIYOR ++++++++++++++++++++++++++++++++++++++++++++++++++++++++++++ 
*
3558:  MOVF   xE1,F
355A:  BNZ   3576
....................    {   
....................       ptesibit2[0]=pazarbit[0]; 
355C:  MOVFF  A6,AA
....................       ptesibit2[1]=pazarbit[1]; 
3560:  MOVFF  A7,AB
....................       pazarbit[0]=23; 
3564:  MOVLW  17
3566:  MOVWF  xA6
....................       pazarbit[1]=59; 
3568:  MOVLW  3B
356A:  MOVWF  xA7
....................       ptesibas2[0]=0; 
356C:  CLRF   xA8
....................       ptesibas2[1]=0; 
356E:  CLRF   xA9
....................       a=1;   
3570:  MOVLW  01
3572:  MOVWF  xE1
3574:  BRA    3558
....................    } 
3576:  GOTO   4070 (RETURN)
.................... } 
....................  
.................... //******************************************************************************************** SALI 1 FONKSIYONU*************************************************************************** 
....................  
.................... void sali1(int a) 
.................... {   
....................    while(a==0)///////////////////BU FONKSIYNA GIRIYOR ++++++++++++++++++++++++++++++++++++++++++++++++++++++++++++ 
*
29FE:  MOVF   xE1,F
2A00:  BTFSS  FD8.2
2A02:  BRA    2BC2
....................    {   
....................       lcd_gotoxy(3,2);//LCD belirtilen satýr ve sütuna git komutu 
2A04:  MOVLW  03
2A06:  MOVWF  xEC
2A08:  MOVLW  02
2A0A:  MOVWF  xED
2A0C:  CALL   0464
....................       printf(lcd_putc,"ACIK/KAPALI"); 
2A10:  MOVLW  D4
2A12:  MOVWF  FF6
2A14:  MOVLW  00
2A16:  MOVWF  FF7
2A18:  CALL   04D6
....................       delay_ms(100); 
2A1C:  MOVLW  64
2A1E:  MOVWF  xEC
2A20:  CALL   02A0
....................             
....................       if(input(pin_a0)==0)//ACIK BUTONUNA BASILINCA++++++++++++++++++++++++++++++++++++++++++++++++++++++++ 
2A24:  BSF    F92.0
2A26:  BTFSC  F80.0
2A28:  BRA    2B5E
....................       {   
....................          delay_ms(20); 
2A2A:  MOVLW  14
2A2C:  MOVWF  xEC
2A2E:  CALL   02A0
....................          while(input(pin_a0)==0); 
2A32:  BSF    F92.0
2A34:  BTFSS  F80.0
2A36:  BRA    2A32
....................        
....................          key3=1; 
2A38:  MOVLW  01
2A3A:  MOVWF  xC6
....................          printf(lcd_putc,"\f"); 
2A3C:  MOVLW  0C
2A3E:  MOVWF  xEB
2A40:  CALL   0486
....................          lcd_gotoxy(4,1);//LCD belirtilen satýr ve sütuna git komutu 
2A44:  MOVLW  04
2A46:  MOVWF  xEC
2A48:  MOVLW  01
2A4A:  MOVWF  xED
2A4C:  CALL   0464
....................          printf(lcd_putc,"SALI 1"); 
2A50:  MOVLW  E0
2A52:  MOVWF  FF6
2A54:  MOVLW  00
2A56:  MOVWF  FF7
2A58:  CALL   04D6
....................           
....................          lcd_gotoxy(6,2);//LCD belirtilen satýr ve sütuna git komutu 
2A5C:  MOVLW  06
2A5E:  MOVWF  xEC
2A60:  MOVLW  02
2A62:  MOVWF  xED
2A64:  CALL   0464
....................          printf(lcd_putc,"ACIK");          
2A68:  MOVLW  E8
2A6A:  MOVWF  FF6
2A6C:  MOVLW  00
2A6E:  MOVWF  FF7
2A70:  CALL   04D6
....................          delay_ms(700); 
2A74:  MOVLW  04
2A76:  MOVWF  xE4
2A78:  MOVLW  AF
2A7A:  MOVWF  xEC
2A7C:  CALL   02A0
2A80:  DECFSZ xE4,F
2A82:  BRA    2A78
....................           
....................          tekrar3://*****************************************************baslangic saati bitis saatinden buyukse basa doner 
....................           
....................          printf(lcd_putc,"\f");// \f komutu ile LCD silinir 
2A84:  MOVLW  0C
2A86:  MOVWF  xEB
2A88:  CALL   0486
....................          lcd_gotoxy(1,1);//LCD belirtilen satýr ve sütuna git komutu 
2A8C:  MOVLW  01
2A8E:  MOVWF  xEC
2A90:  MOVWF  xED
2A92:  CALL   0464
....................          printf(lcd_putc,"BASLANGIC SAATI"); 
2A96:  MOVLW  EE
2A98:  MOVWF  FF6
2A9A:  MOVLW  00
2A9C:  MOVWF  FF7
2A9E:  CALL   04D6
....................          delay_ms(5); 
2AA2:  MOVLW  05
2AA4:  MOVWF  xEC
2AA6:  CALL   02A0
....................           
....................          //**************************************** CLOCK 1 
....................           
....................          clock (0);//BASLANGIC SAATI ICIN GONDERILDI 
2AAA:  CLRF   xE4
2AAC:  CALL   0672
....................          delay_ms(300); 
2AB0:  MOVLW  02
2AB2:  MOVWF  xE4
2AB4:  MOVLW  96
2AB6:  MOVWF  xEC
2AB8:  CALL   02A0
2ABC:  DECFSZ xE4,F
2ABE:  BRA    2AB4
....................           
....................          for(int x=0;x<2;x++)//baslangýc saatý genel dýzýden aktarýlýyor 
2AC0:  CLRF   xE2
2AC2:  MOVF   xE2,W
2AC4:  SUBLW  01
2AC6:  BNC   2AFA
....................          { 
....................             salibas[x]=zaman[x];//pazartesi 2 baslangic degerleri kaydedildi 
2AC8:  CLRF   03
2ACA:  MOVF   xE2,W
2ACC:  ADDLW  90
2ACE:  MOVWF  01
2AD0:  MOVLW  00
2AD2:  ADDWFC 03,F
2AD4:  MOVFF  03,E5
2AD8:  CLRF   03
2ADA:  MOVF   xE2,W
2ADC:  ADDLW  88
2ADE:  MOVWF  FE9
2AE0:  MOVLW  00
2AE2:  ADDWFC 03,W
2AE4:  MOVWF  FEA
2AE6:  MOVFF  FEF,E6
2AEA:  MOVFF  E5,FEA
2AEE:  MOVFF  01,FE9
2AF2:  MOVFF  E6,FEF
2AF6:  INCF   xE2,F
2AF8:  BRA    2AC2
....................          } 
....................  
....................          lcd_gotoxy(1,1);//LCD belirtilen satýr ve sütuna git komutu 
2AFA:  MOVLW  01
2AFC:  MOVWF  xEC
2AFE:  MOVWF  xED
2B00:  CALL   0464
....................          printf(lcd_putc,"\f BITIS SAATI"); 
2B04:  MOVLW  FE
2B06:  MOVWF  FF6
2B08:  MOVLW  00
2B0A:  MOVWF  FF7
2B0C:  CALL   04D6
....................          delay_ms(20); 
2B10:  MOVLW  14
2B12:  MOVWF  xEC
2B14:  CALL   02A0
....................           
....................          //***************************************** CLOCK 2 
....................  
....................          clock (0);//BITIS SAATI ICIN GONDERILDI 
2B18:  CLRF   xE4
2B1A:  CALL   0672
....................  
....................          for(int y=0;y<2;y++)//baslangýc saatý genel diziden aktarýlýyor 
2B1E:  CLRF   xE3
2B20:  MOVF   xE3,W
2B22:  SUBLW  01
2B24:  BNC   2B58
....................          { 
....................             salibit[y]=zaman[y];//pazartesi bitis degerleri kaydedildi 
2B26:  CLRF   03
2B28:  MOVF   xE3,W
2B2A:  ADDLW  92
2B2C:  MOVWF  01
2B2E:  MOVLW  00
2B30:  ADDWFC 03,F
2B32:  MOVFF  03,E5
2B36:  CLRF   03
2B38:  MOVF   xE3,W
2B3A:  ADDLW  88
2B3C:  MOVWF  FE9
2B3E:  MOVLW  00
2B40:  ADDWFC 03,W
2B42:  MOVWF  FEA
2B44:  MOVFF  FEF,E6
2B48:  MOVFF  E5,FEA
2B4C:  MOVFF  01,FE9
2B50:  MOVFF  E6,FEF
2B54:  INCF   xE3,F
2B56:  BRA    2B20
....................          }   
....................            a=1; 
2B58:  MOVLW  01
2B5A:  MOVWF  xE1
....................            f=1; 
2B5C:  MOVWF  xDA
....................       }  
....................        
....................       if(input(pin_a1)==0)//KAPALI BUTONUNA BASILINCA 
2B5E:  BSF    F92.1
2B60:  BTFSC  F80.1
2B62:  BRA    2BC0
....................       { 
....................          delay_ms(20); 
2B64:  MOVLW  14
2B66:  MOVWF  xEC
2B68:  CALL   02A0
....................          while(input(pin_a1)==0); 
2B6C:  BSF    F92.1
2B6E:  BTFSS  F80.1
2B70:  BRA    2B6C
....................           
....................          key3=0; 
2B72:  CLRF   xC6
....................          printf(lcd_putc,"\f"); 
2B74:  MOVLW  0C
2B76:  MOVWF  xEB
2B78:  CALL   0486
....................          lcd_gotoxy(1,2);//LCD belirtilen satýr ve sütuna git komutu 
2B7C:  MOVLW  01
2B7E:  MOVWF  xEC
2B80:  MOVLW  02
2B82:  MOVWF  xED
2B84:  CALL   0464
....................          printf(lcd_putc,"KAPALI"); 
2B88:  MOVLW  0C
2B8A:  MOVWF  FF6
2B8C:  MOVLW  01
2B8E:  MOVWF  FF7
2B90:  CALL   04D6
....................          delay_ms(500); 
2B94:  MOVLW  02
2B96:  MOVWF  xE4
2B98:  MOVLW  FA
2B9A:  MOVWF  xEC
2B9C:  CALL   02A0
2BA0:  DECFSZ xE4,F
2BA2:  BRA    2B98
....................          sifreleme(3,0);// SALI 1  GUNU KAPALI SIFRELEME-SOL GUN KODU-SAG ACIK/KAPALI KODU 
2BA4:  MOVLW  03
2BA6:  MOVWF  xE4
2BA8:  CLRF   xE5
2BAA:  CALL   08D0
....................          delay_ms(20); 
2BAE:  MOVLW  14
2BB0:  MOVWF  xEC
2BB2:  CALL   02A0
....................          a=1; 
2BB6:  MOVLW  01
2BB8:  MOVWF  xE1
....................          i=3; 
2BBA:  MOVLW  03
2BBC:  MOVWF  xD2
....................          f=0; 
2BBE:  CLRF   xDA
....................       } 
2BC0:  BRA    29FE
....................    } 
2BC2:  GOTO   3DB2 (RETURN)
.................... } 
....................  
.................... //******************************************************************************************** SALI 2FONKSIYONU*************************************************************************** 
....................  
.................... void sali2(int a) 
.................... {   
....................    while(a==0)///////////////////BU FONKSIYNA GIRIYOR ++++++++++++++++++++++++++++++++++++++++++++++++++++++++++++ 
*
29DC:  MOVF   xE1,F
29DE:  BNZ   29FA
....................    {   
....................       salibit2[0]=ptesibit[0]; 
29E0:  MOVFF  8E,AE
....................       salibit2[1]=ptesibit[1]; 
29E4:  MOVFF  8F,AF
....................       ptesibit[0]=23; 
29E8:  MOVLW  17
29EA:  MOVWF  x8E
....................       ptesibit[1]=59; 
29EC:  MOVLW  3B
29EE:  MOVWF  x8F
....................       salibas2[0]=0; 
29F0:  CLRF   xAC
....................       salibas2[1]=0; 
29F2:  CLRF   xAD
....................       a=1;   
29F4:  MOVLW  01
29F6:  MOVWF  xE1
29F8:  BRA    29DC
....................    } 
29FA:  GOTO   3D36 (RETURN)
.................... } 
....................  
.................... //******************************************************************************************** CARSAMBA 1 FONKSIYONU*************************************************************************** 
....................  
.................... void carsamba1 (int a) 
.................... {   
....................    while(a==0)///////////////////BU FONKSIYNA GIRIYOR ++++++++++++++++++++++++++++++++++++++++++++++++++++++++++++ 
*
2BE8:  MOVF   xE1,F
2BEA:  BTFSS  FD8.2
2BEC:  BRA    2DAC
....................    {   
....................       lcd_gotoxy(3,2);//LCD belirtilen satýr ve sütuna git komutu 
2BEE:  MOVLW  03
2BF0:  MOVWF  xEC
2BF2:  MOVLW  02
2BF4:  MOVWF  xED
2BF6:  CALL   0464
....................       printf(lcd_putc,"ACIK/KAPALI"); 
2BFA:  MOVLW  14
2BFC:  MOVWF  FF6
2BFE:  MOVLW  01
2C00:  MOVWF  FF7
2C02:  CALL   04D6
....................       delay_ms(100); 
2C06:  MOVLW  64
2C08:  MOVWF  xEC
2C0A:  CALL   02A0
....................           
....................           
....................       if(input(pin_a0)==0)//ACIK BUTONUNA BASILINCA++++++++++++++++++++++++++++++++++++++++++++++++++++++++ 
2C0E:  BSF    F92.0
2C10:  BTFSC  F80.0
2C12:  BRA    2D48
....................       {   
....................          delay_ms(20); 
2C14:  MOVLW  14
2C16:  MOVWF  xEC
2C18:  CALL   02A0
....................          while(input(pin_a0)==0); 
2C1C:  BSF    F92.0
2C1E:  BTFSS  F80.0
2C20:  BRA    2C1C
....................           
....................          key5=1; 
2C22:  MOVLW  01
2C24:  MOVWF  xC8
....................          printf(lcd_putc,"\f"); 
2C26:  MOVLW  0C
2C28:  MOVWF  xEB
2C2A:  CALL   0486
....................          lcd_gotoxy(4,1);//LCD belirtilen satýr ve sütuna git komutu 
2C2E:  MOVLW  04
2C30:  MOVWF  xEC
2C32:  MOVLW  01
2C34:  MOVWF  xED
2C36:  CALL   0464
....................          printf(lcd_putc,"CARSAMBA 1"); 
2C3A:  MOVLW  20
2C3C:  MOVWF  FF6
2C3E:  MOVLW  01
2C40:  MOVWF  FF7
2C42:  CALL   04D6
....................           
....................          lcd_gotoxy(6,2);//LCD belirtilen satýr ve sütuna git komutu 
2C46:  MOVLW  06
2C48:  MOVWF  xEC
2C4A:  MOVLW  02
2C4C:  MOVWF  xED
2C4E:  CALL   0464
....................          printf(lcd_putc,"ACIK");          
2C52:  MOVLW  2C
2C54:  MOVWF  FF6
2C56:  MOVLW  01
2C58:  MOVWF  FF7
2C5A:  CALL   04D6
....................          delay_ms(700); 
2C5E:  MOVLW  04
2C60:  MOVWF  xE4
2C62:  MOVLW  AF
2C64:  MOVWF  xEC
2C66:  CALL   02A0
2C6A:  DECFSZ xE4,F
2C6C:  BRA    2C62
....................           
....................          tekrar5://*****************************************************baslangic saati bitis saatinden buyukse basa doner 
....................           
....................          printf(lcd_putc,"\f");// \f komutu ile LCD silinir 
2C6E:  MOVLW  0C
2C70:  MOVWF  xEB
2C72:  CALL   0486
....................          lcd_gotoxy(1,1);//LCD belirtilen satýr ve sütuna git komutu 
2C76:  MOVLW  01
2C78:  MOVWF  xEC
2C7A:  MOVWF  xED
2C7C:  CALL   0464
....................          printf(lcd_putc,"BASLANGIC SAATI"); 
2C80:  MOVLW  32
2C82:  MOVWF  FF6
2C84:  MOVLW  01
2C86:  MOVWF  FF7
2C88:  CALL   04D6
....................          delay_ms(5); 
2C8C:  MOVLW  05
2C8E:  MOVWF  xEC
2C90:  CALL   02A0
....................           
....................          //**************************************** CLOCK 1 
....................           
....................          clock (0);//BASLANGIC SAATI ICIN GONDERILDI 
2C94:  CLRF   xE4
2C96:  CALL   0672
....................          delay_ms(300); 
2C9A:  MOVLW  02
2C9C:  MOVWF  xE4
2C9E:  MOVLW  96
2CA0:  MOVWF  xEC
2CA2:  CALL   02A0
2CA6:  DECFSZ xE4,F
2CA8:  BRA    2C9E
....................           
....................          for(int x=0;x<2;x++)//baslangýc saatý genel dýzýden aktarýlýyor 
2CAA:  CLRF   xE2
2CAC:  MOVF   xE2,W
2CAE:  SUBLW  01
2CB0:  BNC   2CE4
....................          { 
....................             carbas[x]=zaman[x];//pazartesi 2 baslangic degerleri kaydedildi 
2CB2:  CLRF   03
2CB4:  MOVF   xE2,W
2CB6:  ADDLW  94
2CB8:  MOVWF  01
2CBA:  MOVLW  00
2CBC:  ADDWFC 03,F
2CBE:  MOVFF  03,E5
2CC2:  CLRF   03
2CC4:  MOVF   xE2,W
2CC6:  ADDLW  88
2CC8:  MOVWF  FE9
2CCA:  MOVLW  00
2CCC:  ADDWFC 03,W
2CCE:  MOVWF  FEA
2CD0:  MOVFF  FEF,E6
2CD4:  MOVFF  E5,FEA
2CD8:  MOVFF  01,FE9
2CDC:  MOVFF  E6,FEF
2CE0:  INCF   xE2,F
2CE2:  BRA    2CAC
....................          } 
....................             
....................          lcd_gotoxy(1,1);//LCD belirtilen satýr ve sütuna git komutu 
2CE4:  MOVLW  01
2CE6:  MOVWF  xEC
2CE8:  MOVWF  xED
2CEA:  CALL   0464
....................          printf(lcd_putc,"\f BITIS SAATI"); 
2CEE:  MOVLW  42
2CF0:  MOVWF  FF6
2CF2:  MOVLW  01
2CF4:  MOVWF  FF7
2CF6:  CALL   04D6
....................          delay_ms(20); 
2CFA:  MOVLW  14
2CFC:  MOVWF  xEC
2CFE:  CALL   02A0
....................           
....................          //***************************************** CLOCK 2 
....................           
....................          clock (0);//BITIS SAATI ICIN GONDERILDI 
2D02:  CLRF   xE4
2D04:  CALL   0672
....................  
....................          for(int y=0;y<2;y++)//baslangýc saatý genel diziden aktarýlýyor 
2D08:  CLRF   xE3
2D0A:  MOVF   xE3,W
2D0C:  SUBLW  01
2D0E:  BNC   2D42
....................          { 
....................             carbit[y]=zaman[y];//pazartesi bitis degerleri kaydedildi 
2D10:  CLRF   03
2D12:  MOVF   xE3,W
2D14:  ADDLW  96
2D16:  MOVWF  01
2D18:  MOVLW  00
2D1A:  ADDWFC 03,F
2D1C:  MOVFF  03,E5
2D20:  CLRF   03
2D22:  MOVF   xE3,W
2D24:  ADDLW  88
2D26:  MOVWF  FE9
2D28:  MOVLW  00
2D2A:  ADDWFC 03,W
2D2C:  MOVWF  FEA
2D2E:  MOVFF  FEF,E6
2D32:  MOVFF  E5,FEA
2D36:  MOVFF  01,FE9
2D3A:  MOVFF  E6,FEF
2D3E:  INCF   xE3,F
2D40:  BRA    2D0A
....................          }   
....................     
....................            a=1; 
2D42:  MOVLW  01
2D44:  MOVWF  xE1
....................            f=1; 
2D46:  MOVWF  xDA
....................       }  
....................        
....................       if(input(pin_a1)==0)//KAPALI BUTONUNA BASILINCA  
2D48:  BSF    F92.1
2D4A:  BTFSC  F80.1
2D4C:  BRA    2DAA
....................       { 
....................          delay_ms(20); 
2D4E:  MOVLW  14
2D50:  MOVWF  xEC
2D52:  CALL   02A0
....................          while(input(pin_a1)==0); 
2D56:  BSF    F92.1
2D58:  BTFSS  F80.1
2D5A:  BRA    2D56
....................           
....................          key5=0; 
2D5C:  CLRF   xC8
....................          printf(lcd_putc,"\f"); 
2D5E:  MOVLW  0C
2D60:  MOVWF  xEB
2D62:  CALL   0486
....................          lcd_gotoxy(1,2);//LCD belirtilen satýr ve sütuna git komutu 
2D66:  MOVLW  01
2D68:  MOVWF  xEC
2D6A:  MOVLW  02
2D6C:  MOVWF  xED
2D6E:  CALL   0464
....................          printf(lcd_putc,"KAPALI"); 
2D72:  MOVLW  50
2D74:  MOVWF  FF6
2D76:  MOVLW  01
2D78:  MOVWF  FF7
2D7A:  CALL   04D6
....................          delay_ms(500); 
2D7E:  MOVLW  02
2D80:  MOVWF  xE4
2D82:  MOVLW  FA
2D84:  MOVWF  xEC
2D86:  CALL   02A0
2D8A:  DECFSZ xE4,F
2D8C:  BRA    2D82
....................          sifreleme(5,0);// CARSAMBA 1  GUNU KAPALI SIFRELEME-SOL GUN KODU-SAG ACIK/KAPALI KODU 
2D8E:  MOVLW  05
2D90:  MOVWF  xE4
2D92:  CLRF   xE5
2D94:  CALL   08D0
....................          delay_ms(20); 
2D98:  MOVLW  14
2D9A:  MOVWF  xEC
2D9C:  CALL   02A0
....................          a=1; 
2DA0:  MOVLW  01
2DA2:  MOVWF  xE1
....................          i=3; 
2DA4:  MOVLW  03
2DA6:  MOVWF  xD2
....................          f=0; 
2DA8:  CLRF   xDA
....................       } 
2DAA:  BRA    2BE8
....................    } 
2DAC:  GOTO   3E3C (RETURN)
.................... } 
....................  
.................... //******************************************************************************************** CARSAMBA 2 FONKSIYONU*************************************************************************** 
.................... void carsamba2 (int a) 
.................... {   
....................    while(a==0)///////////////////BU FONKSIYNA GIRIYOR ++++++++++++++++++++++++++++++++++++++++++++++++++++++++++++ 
*
2BC6:  MOVF   xE1,F
2BC8:  BNZ   2BE4
....................    {   
....................       carbit2[0]=salibit[0]; 
2BCA:  MOVFF  92,B2
....................       carbit2[1]=salibit[1]; 
2BCE:  MOVFF  93,B3
....................       salibit[0]=23; 
2BD2:  MOVLW  17
2BD4:  MOVWF  x92
....................       salibit[1]=59; 
2BD6:  MOVLW  3B
2BD8:  MOVWF  x93
....................       carbas2[0]=0; 
2BDA:  CLRF   xB0
....................       carbas2[1]=0; 
2BDC:  CLRF   xB1
....................       a=1;   
2BDE:  MOVLW  01
2BE0:  MOVWF  xE1
2BE2:  BRA    2BC6
....................    }  
2BE4:  GOTO   3DBE (RETURN)
.................... } 
....................  
.................... //******************************************************************************************** PERSEMBE 1 FONKSIYONU*************************************************************************** 
.................... void persembe1 (int a) 
.................... {   
....................    while(a==0)///////////////////BU FONKSIYNA GIRIYOR ++++++++++++++++++++++++++++++++++++++++++++++++++++++++++++ 
*
2DD2:  MOVF   xE1,F
2DD4:  BTFSS  FD8.2
2DD6:  BRA    2F96
....................    {   
....................       lcd_gotoxy(3,2);//LCD belirtilen satýr ve sütuna git komutu 
2DD8:  MOVLW  03
2DDA:  MOVWF  xEC
2DDC:  MOVLW  02
2DDE:  MOVWF  xED
2DE0:  CALL   0464
....................       printf(lcd_putc,"ACIK/KAPALI"); 
2DE4:  MOVLW  58
2DE6:  MOVWF  FF6
2DE8:  MOVLW  01
2DEA:  MOVWF  FF7
2DEC:  CALL   04D6
....................       delay_ms(100); 
2DF0:  MOVLW  64
2DF2:  MOVWF  xEC
2DF4:  CALL   02A0
....................            
....................       if(input(pin_a0)==0)//ACIK BUTONUNA BASILINCA++++++++++++++++++++++++++++++++++++++++++++++++++++++++ 
2DF8:  BSF    F92.0
2DFA:  BTFSC  F80.0
2DFC:  BRA    2F32
....................       {   
....................          delay_ms(20); 
2DFE:  MOVLW  14
2E00:  MOVWF  xEC
2E02:  CALL   02A0
....................          while(input(pin_a0)==0); 
2E06:  BSF    F92.0
2E08:  BTFSS  F80.0
2E0A:  BRA    2E06
....................           
....................          key7=1; 
2E0C:  MOVLW  01
2E0E:  MOVWF  xCA
....................          printf(lcd_putc,"\f"); 
2E10:  MOVLW  0C
2E12:  MOVWF  xEB
2E14:  CALL   0486
....................          lcd_gotoxy(4,1);//LCD belirtilen satýr ve sütuna git komutu 
2E18:  MOVLW  04
2E1A:  MOVWF  xEC
2E1C:  MOVLW  01
2E1E:  MOVWF  xED
2E20:  CALL   0464
....................          printf(lcd_putc,"PERSEMBE 1"); 
2E24:  MOVLW  64
2E26:  MOVWF  FF6
2E28:  MOVLW  01
2E2A:  MOVWF  FF7
2E2C:  CALL   04D6
....................           
....................          lcd_gotoxy(6,2);//LCD belirtilen satýr ve sütuna git komutu 
2E30:  MOVLW  06
2E32:  MOVWF  xEC
2E34:  MOVLW  02
2E36:  MOVWF  xED
2E38:  CALL   0464
....................          printf(lcd_putc,"ACIK");          
2E3C:  MOVLW  70
2E3E:  MOVWF  FF6
2E40:  MOVLW  01
2E42:  MOVWF  FF7
2E44:  CALL   04D6
....................          delay_ms(700); 
2E48:  MOVLW  04
2E4A:  MOVWF  xE4
2E4C:  MOVLW  AF
2E4E:  MOVWF  xEC
2E50:  CALL   02A0
2E54:  DECFSZ xE4,F
2E56:  BRA    2E4C
....................           
....................          tekrar7://*****************************************************baslangic saati bitis saatinden buyukse basa doner 
....................           
....................          printf(lcd_putc,"\f");// \f komutu ile LCD silinir 
2E58:  MOVLW  0C
2E5A:  MOVWF  xEB
2E5C:  CALL   0486
....................          lcd_gotoxy(1,1);//LCD belirtilen satýr ve sütuna git komutu 
2E60:  MOVLW  01
2E62:  MOVWF  xEC
2E64:  MOVWF  xED
2E66:  CALL   0464
....................          printf(lcd_putc,"BASLANGIC SAATI"); 
2E6A:  MOVLW  76
2E6C:  MOVWF  FF6
2E6E:  MOVLW  01
2E70:  MOVWF  FF7
2E72:  CALL   04D6
....................          delay_ms(5); 
2E76:  MOVLW  05
2E78:  MOVWF  xEC
2E7A:  CALL   02A0
....................           
....................          //**************************************** CLOCK 1 
....................           
....................          clock (0);//BASLANGIC SAATI ICIN GONDERILDI 
2E7E:  CLRF   xE4
2E80:  CALL   0672
....................          delay_ms(300); 
2E84:  MOVLW  02
2E86:  MOVWF  xE4
2E88:  MOVLW  96
2E8A:  MOVWF  xEC
2E8C:  CALL   02A0
2E90:  DECFSZ xE4,F
2E92:  BRA    2E88
....................           
....................          for(int x=0;x<2;x++)//baslangýc saatý genel dýzýden aktarýlýyor 
2E94:  CLRF   xE2
2E96:  MOVF   xE2,W
2E98:  SUBLW  01
2E9A:  BNC   2ECE
....................          { 
....................             perbas[x]=zaman[x];//pazartesi 2 baslangic degerleri kaydedildi 
2E9C:  CLRF   03
2E9E:  MOVF   xE2,W
2EA0:  ADDLW  98
2EA2:  MOVWF  01
2EA4:  MOVLW  00
2EA6:  ADDWFC 03,F
2EA8:  MOVFF  03,E5
2EAC:  CLRF   03
2EAE:  MOVF   xE2,W
2EB0:  ADDLW  88
2EB2:  MOVWF  FE9
2EB4:  MOVLW  00
2EB6:  ADDWFC 03,W
2EB8:  MOVWF  FEA
2EBA:  MOVFF  FEF,E6
2EBE:  MOVFF  E5,FEA
2EC2:  MOVFF  01,FE9
2EC6:  MOVFF  E6,FEF
2ECA:  INCF   xE2,F
2ECC:  BRA    2E96
....................          } 
....................   
....................          lcd_gotoxy(1,1);//LCD belirtilen satýr ve sütuna git komutu 
2ECE:  MOVLW  01
2ED0:  MOVWF  xEC
2ED2:  MOVWF  xED
2ED4:  CALL   0464
....................          printf(lcd_putc,"\f BITIS SAATI"); 
2ED8:  MOVLW  86
2EDA:  MOVWF  FF6
2EDC:  MOVLW  01
2EDE:  MOVWF  FF7
2EE0:  CALL   04D6
....................          delay_ms(20); 
2EE4:  MOVLW  14
2EE6:  MOVWF  xEC
2EE8:  CALL   02A0
....................  
....................          //***************************************** CLOCK 2 
....................  
....................          clock (0);//BITIS SAATI ICIN GONDERILDI 
2EEC:  CLRF   xE4
2EEE:  CALL   0672
....................  
....................          for(int y=0;y<2;y++)//baslangýc saatý genel diziden aktarýlýyor 
2EF2:  CLRF   xE3
2EF4:  MOVF   xE3,W
2EF6:  SUBLW  01
2EF8:  BNC   2F2C
....................          { 
....................             perbit[y]=zaman[y];//pazartesi bitis degerleri kaydedildi 
2EFA:  CLRF   03
2EFC:  MOVF   xE3,W
2EFE:  ADDLW  9A
2F00:  MOVWF  01
2F02:  MOVLW  00
2F04:  ADDWFC 03,F
2F06:  MOVFF  03,E5
2F0A:  CLRF   03
2F0C:  MOVF   xE3,W
2F0E:  ADDLW  88
2F10:  MOVWF  FE9
2F12:  MOVLW  00
2F14:  ADDWFC 03,W
2F16:  MOVWF  FEA
2F18:  MOVFF  FEF,E6
2F1C:  MOVFF  E5,FEA
2F20:  MOVFF  01,FE9
2F24:  MOVFF  E6,FEF
2F28:  INCF   xE3,F
2F2A:  BRA    2EF4
....................          }   
....................           
....................            a=1; 
2F2C:  MOVLW  01
2F2E:  MOVWF  xE1
....................            f=1; 
2F30:  MOVWF  xDA
....................       }  
....................       if(input(pin_a1)==0)//KAPALI BUTONUNA BASILINCA  
2F32:  BSF    F92.1
2F34:  BTFSC  F80.1
2F36:  BRA    2F94
....................       { 
....................          delay_ms(20); 
2F38:  MOVLW  14
2F3A:  MOVWF  xEC
2F3C:  CALL   02A0
....................          while(input(pin_a1)==0); 
2F40:  BSF    F92.1
2F42:  BTFSS  F80.1
2F44:  BRA    2F40
....................           
....................          key7=0; 
2F46:  CLRF   xCA
....................          printf(lcd_putc,"\f"); 
2F48:  MOVLW  0C
2F4A:  MOVWF  xEB
2F4C:  CALL   0486
....................          lcd_gotoxy(1,2);//LCD belirtilen satýr ve sütuna git komutu 
2F50:  MOVLW  01
2F52:  MOVWF  xEC
2F54:  MOVLW  02
2F56:  MOVWF  xED
2F58:  CALL   0464
....................          printf(lcd_putc,"KAPALI"); 
2F5C:  MOVLW  94
2F5E:  MOVWF  FF6
2F60:  MOVLW  01
2F62:  MOVWF  FF7
2F64:  CALL   04D6
....................          delay_ms(500); 
2F68:  MOVLW  02
2F6A:  MOVWF  xE4
2F6C:  MOVLW  FA
2F6E:  MOVWF  xEC
2F70:  CALL   02A0
2F74:  DECFSZ xE4,F
2F76:  BRA    2F6C
....................          sifreleme(7,0);// CARSAMBA 1  GUNU KAPALI SIFRELEME-SOL GUN KODU-SAG ACIK/KAPALI KODU 
2F78:  MOVLW  07
2F7A:  MOVWF  xE4
2F7C:  CLRF   xE5
2F7E:  CALL   08D0
....................          delay_ms(20); 
2F82:  MOVLW  14
2F84:  MOVWF  xEC
2F86:  CALL   02A0
....................          a=1; 
2F8A:  MOVLW  01
2F8C:  MOVWF  xE1
....................          i=4; 
2F8E:  MOVLW  04
2F90:  MOVWF  xD2
....................          f=0; 
2F92:  CLRF   xDA
....................     
....................       } 
2F94:  BRA    2DD2
....................    } 
2F96:  GOTO   3EC6 (RETURN)
.................... } 
....................  
....................  
.................... //******************************************************************************************** PERSEMBE 2 FONKSIYONU*************************************************************************** 
.................... void persembe2 (int a) 
.................... {   
....................    while(a==0)///////////////////BU FONKSIYNA GIRIYOR ++++++++++++++++++++++++++++++++++++++++++++++++++++++++++++ 
*
2DB0:  MOVF   xE1,F
2DB2:  BNZ   2DCE
....................    {   
....................          perbit2[0]=carbit[0]; 
2DB4:  MOVFF  96,B6
....................          perbit2[1]=carbit[1]; 
2DB8:  MOVFF  97,B7
....................          carbit[0]=23; 
2DBC:  MOVLW  17
2DBE:  MOVWF  x96
....................          carbit[1]=59; 
2DC0:  MOVLW  3B
2DC2:  MOVWF  x97
....................          perbas2[0]=0; 
2DC4:  CLRF   xB4
....................          perbas2[1]=0; 
2DC6:  CLRF   xB5
....................          a=1;   
2DC8:  MOVLW  01
2DCA:  MOVWF  xE1
2DCC:  BRA    2DB0
....................    }  
2DCE:  GOTO   3E48 (RETURN)
.................... } 
....................  
....................  
.................... //******************************************************************************************** CUMA 1 FONKSIYONU*************************************************************************** 
.................... void cuma1 (int a) 
.................... {   
....................    while(a==0)///////////////////BU FONKSIYNA GIRIYOR ++++++++++++++++++++++++++++++++++++++++++++++++++++++++++++ 
*
2FBC:  MOVF   xE1,F
2FBE:  BTFSS  FD8.2
2FC0:  BRA    3180
....................    {   
....................       lcd_gotoxy(3,2);//LCD belirtilen satýr ve sütuna git komutu 
2FC2:  MOVLW  03
2FC4:  MOVWF  xEC
2FC6:  MOVLW  02
2FC8:  MOVWF  xED
2FCA:  CALL   0464
....................       printf(lcd_putc,"ACIK/KAPALI"); 
2FCE:  MOVLW  9C
2FD0:  MOVWF  FF6
2FD2:  MOVLW  01
2FD4:  MOVWF  FF7
2FD6:  CALL   04D6
....................       delay_ms(100); 
2FDA:  MOVLW  64
2FDC:  MOVWF  xEC
2FDE:  CALL   02A0
....................              
....................       if(input(pin_a0)==0)//ACIK BUTONUNA BASILINCA++++++++++++++++++++++++++++++++++++++++++++++++++++++++ 
2FE2:  BSF    F92.0
2FE4:  BTFSC  F80.0
2FE6:  BRA    311C
....................       {   
....................          delay_ms(20); 
2FE8:  MOVLW  14
2FEA:  MOVWF  xEC
2FEC:  CALL   02A0
....................          while(input(pin_a0)==0); 
2FF0:  BSF    F92.0
2FF2:  BTFSS  F80.0
2FF4:  BRA    2FF0
....................           
....................          key9=1; 
2FF6:  MOVLW  01
2FF8:  MOVWF  xCC
....................          printf(lcd_putc,"\f"); 
2FFA:  MOVLW  0C
2FFC:  MOVWF  xEB
2FFE:  CALL   0486
....................          lcd_gotoxy(4,1);//LCD belirtilen satýr ve sütuna git komutu 
3002:  MOVLW  04
3004:  MOVWF  xEC
3006:  MOVLW  01
3008:  MOVWF  xED
300A:  CALL   0464
....................          printf(lcd_putc,"CUMA 1"); 
300E:  MOVLW  A8
3010:  MOVWF  FF6
3012:  MOVLW  01
3014:  MOVWF  FF7
3016:  CALL   04D6
....................           
....................          lcd_gotoxy(6,2);//LCD belirtilen satýr ve sütuna git komutu 
301A:  MOVLW  06
301C:  MOVWF  xEC
301E:  MOVLW  02
3020:  MOVWF  xED
3022:  CALL   0464
....................          printf(lcd_putc,"ACIK");          
3026:  MOVLW  B0
3028:  MOVWF  FF6
302A:  MOVLW  01
302C:  MOVWF  FF7
302E:  CALL   04D6
....................          delay_ms(700); 
3032:  MOVLW  04
3034:  MOVWF  xE4
3036:  MOVLW  AF
3038:  MOVWF  xEC
303A:  CALL   02A0
303E:  DECFSZ xE4,F
3040:  BRA    3036
....................           
....................          tekrar9://*****************************************************baslangic saati bitis saatinden buyukse basa doner 
....................           
....................          printf(lcd_putc,"\f");// \f komutu ile LCD silinir 
3042:  MOVLW  0C
3044:  MOVWF  xEB
3046:  CALL   0486
....................          lcd_gotoxy(1,1);//LCD belirtilen satýr ve sütuna git komutu 
304A:  MOVLW  01
304C:  MOVWF  xEC
304E:  MOVWF  xED
3050:  CALL   0464
....................          printf(lcd_putc,"BASLANGIC SAATI"); 
3054:  MOVLW  B6
3056:  MOVWF  FF6
3058:  MOVLW  01
305A:  MOVWF  FF7
305C:  CALL   04D6
....................          delay_ms(5); 
3060:  MOVLW  05
3062:  MOVWF  xEC
3064:  CALL   02A0
....................           
....................          //**************************************** CLOCK 1 
....................           
....................          clock (0);//BASLANGIC SAATI ICIN GONDERILDI 
3068:  CLRF   xE4
306A:  CALL   0672
....................          delay_ms(300); 
306E:  MOVLW  02
3070:  MOVWF  xE4
3072:  MOVLW  96
3074:  MOVWF  xEC
3076:  CALL   02A0
307A:  DECFSZ xE4,F
307C:  BRA    3072
....................           
....................          for(int x=0;x<2;x++)//baslangýc saatý genel dýzýden aktarýlýyor 
307E:  CLRF   xE2
3080:  MOVF   xE2,W
3082:  SUBLW  01
3084:  BNC   30B8
....................          { 
....................             cumabas[x]=zaman[x];//cuma 2 baslangic degerleri kaydedildi 
3086:  CLRF   03
3088:  MOVF   xE2,W
308A:  ADDLW  9C
308C:  MOVWF  01
308E:  MOVLW  00
3090:  ADDWFC 03,F
3092:  MOVFF  03,E5
3096:  CLRF   03
3098:  MOVF   xE2,W
309A:  ADDLW  88
309C:  MOVWF  FE9
309E:  MOVLW  00
30A0:  ADDWFC 03,W
30A2:  MOVWF  FEA
30A4:  MOVFF  FEF,E6
30A8:  MOVFF  E5,FEA
30AC:  MOVFF  01,FE9
30B0:  MOVFF  E6,FEF
30B4:  INCF   xE2,F
30B6:  BRA    3080
....................          } 
....................             
....................          lcd_gotoxy(1,1);//LCD belirtilen satýr ve sütuna git komutu 
30B8:  MOVLW  01
30BA:  MOVWF  xEC
30BC:  MOVWF  xED
30BE:  CALL   0464
....................          printf(lcd_putc,"\f BITIS SAATI"); 
30C2:  MOVLW  C6
30C4:  MOVWF  FF6
30C6:  MOVLW  01
30C8:  MOVWF  FF7
30CA:  CALL   04D6
....................          delay_ms(20); 
30CE:  MOVLW  14
30D0:  MOVWF  xEC
30D2:  CALL   02A0
....................           
....................          //***************************************** CLOCK 2 
....................  
....................          clock (0);//BITIS SAATI ICIN GONDERILDI 
30D6:  CLRF   xE4
30D8:  CALL   0672
....................  
....................          for(int y=0;y<2;y++)//baslangýc saatý genel diziden aktarýlýyor 
30DC:  CLRF   xE3
30DE:  MOVF   xE3,W
30E0:  SUBLW  01
30E2:  BNC   3116
....................          { 
....................             cumabit[y]=zaman[y];//pazartesi bitis degerleri kaydedildi 
30E4:  CLRF   03
30E6:  MOVF   xE3,W
30E8:  ADDLW  9E
30EA:  MOVWF  01
30EC:  MOVLW  00
30EE:  ADDWFC 03,F
30F0:  MOVFF  03,E5
30F4:  CLRF   03
30F6:  MOVF   xE3,W
30F8:  ADDLW  88
30FA:  MOVWF  FE9
30FC:  MOVLW  00
30FE:  ADDWFC 03,W
3100:  MOVWF  FEA
3102:  MOVFF  FEF,E6
3106:  MOVFF  E5,FEA
310A:  MOVFF  01,FE9
310E:  MOVFF  E6,FEF
3112:  INCF   xE3,F
3114:  BRA    30DE
....................          }   
....................  
....................            a=1; 
3116:  MOVLW  01
3118:  MOVWF  xE1
....................            f=1; 
311A:  MOVWF  xDA
....................       }  
....................       if(input(pin_a1)==0)//KAPALI BUTONUNA BASILINCA  
311C:  BSF    F92.1
311E:  BTFSC  F80.1
3120:  BRA    317E
....................       { 
....................          delay_ms(20); 
3122:  MOVLW  14
3124:  MOVWF  xEC
3126:  CALL   02A0
....................          while(input(pin_a1)==0); 
312A:  BSF    F92.1
312C:  BTFSS  F80.1
312E:  BRA    312A
....................           
....................          key9=0; 
3130:  CLRF   xCC
....................          printf(lcd_putc,"\f"); 
3132:  MOVLW  0C
3134:  MOVWF  xEB
3136:  CALL   0486
....................          lcd_gotoxy(1,2);//LCD belirtilen satýr ve sütuna git komutu 
313A:  MOVLW  01
313C:  MOVWF  xEC
313E:  MOVLW  02
3140:  MOVWF  xED
3142:  CALL   0464
....................          printf(lcd_putc,"KAPALI"); 
3146:  MOVLW  D4
3148:  MOVWF  FF6
314A:  MOVLW  01
314C:  MOVWF  FF7
314E:  CALL   04D6
....................          delay_ms(500); 
3152:  MOVLW  02
3154:  MOVWF  xE4
3156:  MOVLW  FA
3158:  MOVWF  xEC
315A:  CALL   02A0
315E:  DECFSZ xE4,F
3160:  BRA    3156
....................          sifreleme(9,0);// CARSAMBA 1  GUNU KAPALI SIFRELEME-SOL GUN KODU-SAG ACIK/KAPALI KODU 
3162:  MOVLW  09
3164:  MOVWF  xE4
3166:  CLRF   xE5
3168:  CALL   08D0
....................          delay_ms(20); 
316C:  MOVLW  14
316E:  MOVWF  xEC
3170:  CALL   02A0
....................          a=1; 
3174:  MOVLW  01
3176:  MOVWF  xE1
....................          i=5; 
3178:  MOVLW  05
317A:  MOVWF  xD2
....................          f=0; 
317C:  CLRF   xDA
....................       } 
317E:  BRA    2FBC
....................    } 
3180:  GOTO   3F50 (RETURN)
.................... } 
....................  
.................... //******************************************************************************************** CUMA 2 FONKSIYONU*************************************************************************** 
.................... void cuma2 (int a) 
.................... {   
....................    while(a==0)///////////////////BU FONKSIYNA GIRIYOR ++++++++++++++++++++++++++++++++++++++++++++++++++++++++++++ 
*
2F9A:  MOVF   xE1,F
2F9C:  BNZ   2FB8
....................    {        
....................       cumabit2[0]=perbit[0]; 
2F9E:  MOVFF  9A,BA
....................       cumabit2[1]=perbit[1]; 
2FA2:  MOVFF  9B,BB
....................       perbit[0]=23; 
2FA6:  MOVLW  17
2FA8:  MOVWF  x9A
....................       perbit[1]=59; 
2FAA:  MOVLW  3B
2FAC:  MOVWF  x9B
....................       cumabas2[0]=0; 
2FAE:  CLRF   xB8
....................       cumabas2[1]=0; 
2FB0:  CLRF   xB9
....................       a=1;   
2FB2:  MOVLW  01
2FB4:  MOVWF  xE1
2FB6:  BRA    2F9A
....................    }  
2FB8:  GOTO   3ED2 (RETURN)
.................... } 
....................  
....................  
....................  
.................... //******************************************************************************************** CUMARTESI 1 FONKSIYONU*************************************************************************** 
.................... void cumartesi1 (int a) 
.................... {   
....................    while(a==0)///////////////////BU FONKSIYNA GIRIYOR ++++++++++++++++++++++++++++++++++++++++++++++++++++++++++++ 
*
31A6:  MOVF   xE1,F
31A8:  BTFSS  FD8.2
31AA:  BRA    336A
....................    {   
....................       lcd_gotoxy(3,2);//LCD belirtilen satýr ve sütuna git komutu 
31AC:  MOVLW  03
31AE:  MOVWF  xEC
31B0:  MOVLW  02
31B2:  MOVWF  xED
31B4:  CALL   0464
....................       printf(lcd_putc,"ACIK/KAPALI"); 
31B8:  MOVLW  DC
31BA:  MOVWF  FF6
31BC:  MOVLW  01
31BE:  MOVWF  FF7
31C0:  CALL   04D6
....................       delay_ms(100); 
31C4:  MOVLW  64
31C6:  MOVWF  xEC
31C8:  CALL   02A0
....................              
....................       if(input(pin_a0)==0)//ACIK BUTONUNA BASILINCA++++++++++++++++++++++++++++++++++++++++++++++++++++++++ 
31CC:  BSF    F92.0
31CE:  BTFSC  F80.0
31D0:  BRA    3306
....................       {   
....................          delay_ms(20); 
31D2:  MOVLW  14
31D4:  MOVWF  xEC
31D6:  CALL   02A0
....................          while(input(pin_a0)==0); 
31DA:  BSF    F92.0
31DC:  BTFSS  F80.0
31DE:  BRA    31DA
....................           
....................          key11=1; 
31E0:  MOVLW  01
31E2:  MOVWF  xCE
....................          printf(lcd_putc,"\f"); 
31E4:  MOVLW  0C
31E6:  MOVWF  xEB
31E8:  CALL   0486
....................          lcd_gotoxy(4,1);//LCD belirtilen satýr ve sütuna git komutu 
31EC:  MOVLW  04
31EE:  MOVWF  xEC
31F0:  MOVLW  01
31F2:  MOVWF  xED
31F4:  CALL   0464
....................          printf(lcd_putc,"CUMARTESI 1"); 
31F8:  MOVLW  E8
31FA:  MOVWF  FF6
31FC:  MOVLW  01
31FE:  MOVWF  FF7
3200:  CALL   04D6
....................           
....................          lcd_gotoxy(6,2);//LCD belirtilen satýr ve sütuna git komutu 
3204:  MOVLW  06
3206:  MOVWF  xEC
3208:  MOVLW  02
320A:  MOVWF  xED
320C:  CALL   0464
....................          printf(lcd_putc,"ACIK");          
3210:  MOVLW  F4
3212:  MOVWF  FF6
3214:  MOVLW  01
3216:  MOVWF  FF7
3218:  CALL   04D6
....................          delay_ms(700); 
321C:  MOVLW  04
321E:  MOVWF  xE4
3220:  MOVLW  AF
3222:  MOVWF  xEC
3224:  CALL   02A0
3228:  DECFSZ xE4,F
322A:  BRA    3220
....................           
....................          tekrar11://*****************************************************baslangic saati bitis saatinden buyukse basa doner 
....................           
....................          printf(lcd_putc,"\f");// \f komutu ile LCD silinir 
322C:  MOVLW  0C
322E:  MOVWF  xEB
3230:  CALL   0486
....................          lcd_gotoxy(1,1);//LCD belirtilen satýr ve sütuna git komutu 
3234:  MOVLW  01
3236:  MOVWF  xEC
3238:  MOVWF  xED
323A:  CALL   0464
....................          printf(lcd_putc,"BASLANGIC SAATI"); 
323E:  MOVLW  FA
3240:  MOVWF  FF6
3242:  MOVLW  01
3244:  MOVWF  FF7
3246:  CALL   04D6
....................          delay_ms(5); 
324A:  MOVLW  05
324C:  MOVWF  xEC
324E:  CALL   02A0
....................           
....................          //**************************************** CLOCK 1 
....................           
....................          clock (0);//BASLANGIC SAATI ICIN GONDERILDI 
3252:  CLRF   xE4
3254:  CALL   0672
....................          delay_ms(300); 
3258:  MOVLW  02
325A:  MOVWF  xE4
325C:  MOVLW  96
325E:  MOVWF  xEC
3260:  CALL   02A0
3264:  DECFSZ xE4,F
3266:  BRA    325C
....................           
....................          for(int x=0;x<2;x++)//baslangýc saatý genel dýzýden aktarýlýyor 
3268:  CLRF   xE2
326A:  MOVF   xE2,W
326C:  SUBLW  01
326E:  BNC   32A2
....................          { 
....................             ctesibas[x]=zaman[x];//cuma 2 baslangic degerleri kaydedildi 
3270:  CLRF   03
3272:  MOVF   xE2,W
3274:  ADDLW  A0
3276:  MOVWF  01
3278:  MOVLW  00
327A:  ADDWFC 03,F
327C:  MOVFF  03,E5
3280:  CLRF   03
3282:  MOVF   xE2,W
3284:  ADDLW  88
3286:  MOVWF  FE9
3288:  MOVLW  00
328A:  ADDWFC 03,W
328C:  MOVWF  FEA
328E:  MOVFF  FEF,E6
3292:  MOVFF  E5,FEA
3296:  MOVFF  01,FE9
329A:  MOVFF  E6,FEF
329E:  INCF   xE2,F
32A0:  BRA    326A
....................          } 
....................             
....................          lcd_gotoxy(1,1);//LCD belirtilen satýr ve sütuna git komutu 
32A2:  MOVLW  01
32A4:  MOVWF  xEC
32A6:  MOVWF  xED
32A8:  CALL   0464
....................          printf(lcd_putc,"\f BITIS SAATI"); 
32AC:  MOVLW  0A
32AE:  MOVWF  FF6
32B0:  MOVLW  02
32B2:  MOVWF  FF7
32B4:  CALL   04D6
....................          delay_ms(20); 
32B8:  MOVLW  14
32BA:  MOVWF  xEC
32BC:  CALL   02A0
....................           
....................          //***************************************** CLOCK 2 
....................  
....................          clock (0);//BITIS SAATI ICIN GONDERILDI 
32C0:  CLRF   xE4
32C2:  CALL   0672
....................  
....................          for(int y=0;y<2;y++)//baslangýc saatý genel diziden aktarýlýyor 
32C6:  CLRF   xE3
32C8:  MOVF   xE3,W
32CA:  SUBLW  01
32CC:  BNC   3300
....................          { 
....................             ctesibit[y]=zaman[y];//pazartesi bitis degerleri kaydedildi 
32CE:  CLRF   03
32D0:  MOVF   xE3,W
32D2:  ADDLW  A2
32D4:  MOVWF  01
32D6:  MOVLW  00
32D8:  ADDWFC 03,F
32DA:  MOVFF  03,E5
32DE:  CLRF   03
32E0:  MOVF   xE3,W
32E2:  ADDLW  88
32E4:  MOVWF  FE9
32E6:  MOVLW  00
32E8:  ADDWFC 03,W
32EA:  MOVWF  FEA
32EC:  MOVFF  FEF,E6
32F0:  MOVFF  E5,FEA
32F4:  MOVFF  01,FE9
32F8:  MOVFF  E6,FEF
32FC:  INCF   xE3,F
32FE:  BRA    32C8
....................          }   
....................            a=1; 
3300:  MOVLW  01
3302:  MOVWF  xE1
....................            f=1; 
3304:  MOVWF  xDA
....................       }  
....................       if(input(pin_a1)==0)//KAPALI BUTONUNA BASILINCA  
3306:  BSF    F92.1
3308:  BTFSC  F80.1
330A:  BRA    3368
....................       { 
....................          delay_ms(20); 
330C:  MOVLW  14
330E:  MOVWF  xEC
3310:  CALL   02A0
....................          while(input(pin_a1)==0); 
3314:  BSF    F92.1
3316:  BTFSS  F80.1
3318:  BRA    3314
....................           
....................          key11=0; 
331A:  CLRF   xCE
....................          printf(lcd_putc,"\f"); 
331C:  MOVLW  0C
331E:  MOVWF  xEB
3320:  CALL   0486
....................          lcd_gotoxy(1,2);//LCD belirtilen satýr ve sütuna git komutu 
3324:  MOVLW  01
3326:  MOVWF  xEC
3328:  MOVLW  02
332A:  MOVWF  xED
332C:  CALL   0464
....................          printf(lcd_putc,"KAPALI"); 
3330:  MOVLW  18
3332:  MOVWF  FF6
3334:  MOVLW  02
3336:  MOVWF  FF7
3338:  CALL   04D6
....................          delay_ms(500); 
333C:  MOVLW  02
333E:  MOVWF  xE4
3340:  MOVLW  FA
3342:  MOVWF  xEC
3344:  CALL   02A0
3348:  DECFSZ xE4,F
334A:  BRA    3340
....................          sifreleme(11,0);// CARSAMBA 1  GUNU KAPALI SIFRELEME-SOL GUN KODU-SAG ACIK/KAPALI KODU 
334C:  MOVLW  0B
334E:  MOVWF  xE4
3350:  CLRF   xE5
3352:  CALL   08D0
....................          delay_ms(20); 
3356:  MOVLW  14
3358:  MOVWF  xEC
335A:  CALL   02A0
....................          a=1; 
335E:  MOVLW  01
3360:  MOVWF  xE1
....................          i=6; 
3362:  MOVLW  06
3364:  MOVWF  xD2
....................          f=0; 
3366:  CLRF   xDA
....................       } 
3368:  BRA    31A6
....................    } 
336A:  GOTO   3FDA (RETURN)
.................... } 
....................  
.................... //******************************************************************************************** CUMARTESI 2 FONKSIYONU*************************************************************************** 
.................... void cumartesi2 (int a) 
.................... {   
....................    while(a==0)///////////////////BU FONKSIYNA GIRIYOR ++++++++++++++++++++++++++++++++++++++++++++++++++++++++++++ 
*
3184:  MOVF   xE1,F
3186:  BNZ   31A2
....................    {        
....................       ctesibit2[0]=cumabit[0]; 
3188:  MOVFF  9E,BE
....................       ctesibit2[1]=cumabit[1]; 
318C:  MOVFF  9F,BF
....................       cumabit[0]=23; 
3190:  MOVLW  17
3192:  MOVWF  x9E
....................       cumabit[1]=59; 
3194:  MOVLW  3B
3196:  MOVWF  x9F
....................       ctesibas2[0]=0; 
3198:  CLRF   xBC
....................       ctesibas2[1]=0; 
319A:  CLRF   xBD
....................       a=1;   
319C:  MOVLW  01
319E:  MOVWF  xE1
31A0:  BRA    3184
....................    }  
31A2:  GOTO   3F5C (RETURN)
.................... } 
....................  
.................... void pazar1 (int a) 
.................... {   
....................    while(a==0)///////////////////BU FONKSIYNA GIRIYOR ++++++++++++++++++++++++++++++++++++++++++++++++++++++++++++ 
*
3390:  MOVF   xE1,F
3392:  BTFSS  FD8.2
3394:  BRA    3554
....................    {   
....................       lcd_gotoxy(3,2);//LCD belirtilen satýr ve sütuna git komutu 
3396:  MOVLW  03
3398:  MOVWF  xEC
339A:  MOVLW  02
339C:  MOVWF  xED
339E:  CALL   0464
....................       printf(lcd_putc,"ACIK/KAPALI"); 
33A2:  MOVLW  20
33A4:  MOVWF  FF6
33A6:  MOVLW  02
33A8:  MOVWF  FF7
33AA:  CALL   04D6
....................       delay_ms(100); 
33AE:  MOVLW  64
33B0:  MOVWF  xEC
33B2:  CALL   02A0
....................    
....................       if(input(pin_a0)==0)//ACIK BUTONUNA BASILINCA++++++++++++++++++++++++++++++++++++++++++++++++++++++++ 
33B6:  BSF    F92.0
33B8:  BTFSC  F80.0
33BA:  BRA    34F0
....................       {   
....................          delay_ms(20); 
33BC:  MOVLW  14
33BE:  MOVWF  xEC
33C0:  CALL   02A0
....................          while(input(pin_a0)==0); 
33C4:  BSF    F92.0
33C6:  BTFSS  F80.0
33C8:  BRA    33C4
....................           
....................          key13=1; 
33CA:  MOVLW  01
33CC:  MOVWF  xD0
....................          printf(lcd_putc,"\f"); 
33CE:  MOVLW  0C
33D0:  MOVWF  xEB
33D2:  CALL   0486
....................          lcd_gotoxy(4,1);//LCD belirtilen satýr ve sütuna git komutu 
33D6:  MOVLW  04
33D8:  MOVWF  xEC
33DA:  MOVLW  01
33DC:  MOVWF  xED
33DE:  CALL   0464
....................          printf(lcd_putc,"PAZAR 1"); 
33E2:  MOVLW  2C
33E4:  MOVWF  FF6
33E6:  MOVLW  02
33E8:  MOVWF  FF7
33EA:  CALL   04D6
....................           
....................          lcd_gotoxy(6,2);//LCD belirtilen satýr ve sütuna git komutu 
33EE:  MOVLW  06
33F0:  MOVWF  xEC
33F2:  MOVLW  02
33F4:  MOVWF  xED
33F6:  CALL   0464
....................          printf(lcd_putc,"ACIK");          
33FA:  MOVLW  34
33FC:  MOVWF  FF6
33FE:  MOVLW  02
3400:  MOVWF  FF7
3402:  CALL   04D6
....................          delay_ms(700); 
3406:  MOVLW  04
3408:  MOVWF  xE4
340A:  MOVLW  AF
340C:  MOVWF  xEC
340E:  CALL   02A0
3412:  DECFSZ xE4,F
3414:  BRA    340A
....................           
....................          tekrar13://*****************************************************baslangic saati bitis saatinden buyukse basa doner 
....................           
....................          printf(lcd_putc,"\f");// \f komutu ile LCD silinir 
3416:  MOVLW  0C
3418:  MOVWF  xEB
341A:  CALL   0486
....................          lcd_gotoxy(1,1);//LCD belirtilen satýr ve sütuna git komutu 
341E:  MOVLW  01
3420:  MOVWF  xEC
3422:  MOVWF  xED
3424:  CALL   0464
....................          printf(lcd_putc,"BASLANGIC SAATI"); 
3428:  MOVLW  3A
342A:  MOVWF  FF6
342C:  MOVLW  02
342E:  MOVWF  FF7
3430:  CALL   04D6
....................          delay_ms(5); 
3434:  MOVLW  05
3436:  MOVWF  xEC
3438:  CALL   02A0
....................           
....................          //**************************************** CLOCK 1 
....................           
....................          clock (0);//BASLANGIC SAATI ICIN GONDERILDI 
343C:  CLRF   xE4
343E:  CALL   0672
....................          delay_ms(300); 
3442:  MOVLW  02
3444:  MOVWF  xE4
3446:  MOVLW  96
3448:  MOVWF  xEC
344A:  CALL   02A0
344E:  DECFSZ xE4,F
3450:  BRA    3446
....................           
....................          for(int x=0;x<2;x++)//baslangýc saatý genel dýzýden aktarýlýyor 
3452:  CLRF   xE2
3454:  MOVF   xE2,W
3456:  SUBLW  01
3458:  BNC   348C
....................          { 
....................             pazarbas[x]=zaman[x];//cuma 2 baslangic degerleri kaydedildi 
345A:  CLRF   03
345C:  MOVF   xE2,W
345E:  ADDLW  A4
3460:  MOVWF  01
3462:  MOVLW  00
3464:  ADDWFC 03,F
3466:  MOVFF  03,E5
346A:  CLRF   03
346C:  MOVF   xE2,W
346E:  ADDLW  88
3470:  MOVWF  FE9
3472:  MOVLW  00
3474:  ADDWFC 03,W
3476:  MOVWF  FEA
3478:  MOVFF  FEF,E6
347C:  MOVFF  E5,FEA
3480:  MOVFF  01,FE9
3484:  MOVFF  E6,FEF
3488:  INCF   xE2,F
348A:  BRA    3454
....................          } 
....................    
....................          lcd_gotoxy(1,1);//LCD belirtilen satýr ve sütuna git komutu 
348C:  MOVLW  01
348E:  MOVWF  xEC
3490:  MOVWF  xED
3492:  CALL   0464
....................          printf(lcd_putc,"\f BITIS SAATI"); 
3496:  MOVLW  4A
3498:  MOVWF  FF6
349A:  MOVLW  02
349C:  MOVWF  FF7
349E:  CALL   04D6
....................          delay_ms(20); 
34A2:  MOVLW  14
34A4:  MOVWF  xEC
34A6:  CALL   02A0
....................           
....................          //***************************************** CLOCK 2 
....................  
....................          clock (0);//BITIS SAATI ICIN GONDERILDI 
34AA:  CLRF   xE4
34AC:  CALL   0672
....................  
....................          for(int y=0;y<2;y++)//baslangýc saatý genel diziden aktarýlýyor 
34B0:  CLRF   xE3
34B2:  MOVF   xE3,W
34B4:  SUBLW  01
34B6:  BNC   34EA
....................          { 
....................             pazarbit[y]=zaman[y];//pazartesi bitis degerleri kaydedildi 
34B8:  CLRF   03
34BA:  MOVF   xE3,W
34BC:  ADDLW  A6
34BE:  MOVWF  01
34C0:  MOVLW  00
34C2:  ADDWFC 03,F
34C4:  MOVFF  03,E5
34C8:  CLRF   03
34CA:  MOVF   xE3,W
34CC:  ADDLW  88
34CE:  MOVWF  FE9
34D0:  MOVLW  00
34D2:  ADDWFC 03,W
34D4:  MOVWF  FEA
34D6:  MOVFF  FEF,E6
34DA:  MOVFF  E5,FEA
34DE:  MOVFF  01,FE9
34E2:  MOVFF  E6,FEF
34E6:  INCF   xE3,F
34E8:  BRA    34B2
....................          }   
....................           
....................            a=1; 
34EA:  MOVLW  01
34EC:  MOVWF  xE1
....................            f=1; 
34EE:  MOVWF  xDA
....................       }  
....................       if(input(pin_a1)==0)//KAPALI BUTONUNA BASILINCA  
34F0:  BSF    F92.1
34F2:  BTFSC  F80.1
34F4:  BRA    3552
....................       { 
....................          delay_ms(20); 
34F6:  MOVLW  14
34F8:  MOVWF  xEC
34FA:  CALL   02A0
....................          while(input(pin_a1)==0); 
34FE:  BSF    F92.1
3500:  BTFSS  F80.1
3502:  BRA    34FE
....................           
....................          key13=0; 
3504:  CLRF   xD0
....................          printf(lcd_putc,"\f"); 
3506:  MOVLW  0C
3508:  MOVWF  xEB
350A:  CALL   0486
....................          lcd_gotoxy(1,2);//LCD belirtilen satýr ve sütuna git komutu 
350E:  MOVLW  01
3510:  MOVWF  xEC
3512:  MOVLW  02
3514:  MOVWF  xED
3516:  CALL   0464
....................          printf(lcd_putc,"KAPALI"); 
351A:  MOVLW  58
351C:  MOVWF  FF6
351E:  MOVLW  02
3520:  MOVWF  FF7
3522:  CALL   04D6
....................          delay_ms(500); 
3526:  MOVLW  02
3528:  MOVWF  xE4
352A:  MOVLW  FA
352C:  MOVWF  xEC
352E:  CALL   02A0
3532:  DECFSZ xE4,F
3534:  BRA    352A
....................          sifreleme(13,0);// CARSAMBA 1  GUNU KAPALI SIFRELEME-SOL GUN KODU-SAG ACIK/KAPALI KODU 
3536:  MOVLW  0D
3538:  MOVWF  xE4
353A:  CLRF   xE5
353C:  CALL   08D0
....................          delay_ms(20); 
3540:  MOVLW  14
3542:  MOVWF  xEC
3544:  CALL   02A0
....................          a=1; 
3548:  MOVLW  01
354A:  MOVWF  xE1
....................          i=7; 
354C:  MOVLW  07
354E:  MOVWF  xD2
....................          f=0; 
3550:  CLRF   xDA
....................       } 
3552:  BRA    3390
....................    } 
3554:  GOTO   4064 (RETURN)
.................... } 
....................  
....................  
.................... void pazar2 (int a) 
.................... {   
....................    while(a==0)///////////////////BU FONKSIYNA GIRIYOR ++++++++++++++++++++++++++++++++++++++++++++++++++++++++++++ 
*
336E:  MOVF   xE1,F
3370:  BNZ   338C
....................    {        
....................       pazarbit2[0]=ctesibit[0]; 
3372:  MOVFF  A2,C2
....................       pazarbit2[1]=ctesibit[1]; 
3376:  MOVFF  A3,C3
....................       ctesibit[0]=23; 
337A:  MOVLW  17
337C:  MOVWF  xA2
....................       ctesibit[1]=59; 
337E:  MOVLW  3B
3380:  MOVWF  xA3
....................       pazarbas2[0]=0; 
3382:  CLRF   xC0
....................       pazarbas2[1]=0; 
3384:  CLRF   xC1
....................       a=1;   
3386:  MOVLW  01
3388:  MOVWF  xE1
338A:  BRA    336E
....................    }  
338C:  GOTO   3FE6 (RETURN)
.................... } 
....................  
....................  
....................  
....................  
.................... //******************************************************************************************** CLOCK FONKSIYONU********************************************************************************* 
....................  
.................... void clock (int b)// k DEGERI 1 GELIRSE O GUN AKTIF 0 ISE PASIF OLACAK 
.................... {      
....................    j=1;//her fonksiyona girdiðinde imleç sol saat tarafýnda olacak. 
*
0672:  MOVLW  01
0674:  MOVWF  xD3
....................       
....................    while(b==0) 
0676:  MOVF   xE4,F
0678:  BTFSS  FD8.2
067A:  BRA    0856
....................    {  
....................       lcd_gotoxy(8,2);//LCD belirtilen sütun ve satýra git komutu 
067C:  MOVLW  08
067E:  MOVWF  xEC
0680:  MOVLW  02
0682:  MOVWF  xED
0684:  RCALL  0464
....................       printf(lcd_putc,":"); 
0686:  MOVLW  3A
0688:  MOVWF  xEB
068A:  RCALL  0486
....................       delay_ms(5); 
068C:  MOVLW  05
068E:  MOVWF  xEC
0690:  RCALL  02A0
....................       if(saat<10)//Tek haneli rakamlarda ekranda basa 0 ATAR 
0692:  MOVF   xD4,W
0694:  SUBLW  09
0696:  BNC   06D6
....................       { 
....................          lcd_gotoxy(6,2);//LCD belirtilen sütun ve satýra git komutu 
0698:  MOVLW  06
069A:  MOVWF  xEC
069C:  MOVLW  02
069E:  MOVWF  xED
06A0:  RCALL  0464
....................          printf(lcd_putc,"%02d",saat);   
06A2:  MOVFF  D4,E5
06A6:  MOVLW  01
06A8:  MOVWF  xE6
06AA:  RCALL  051E
....................          if(j==1) 
06AC:  DECFSZ xD3,W
06AE:  BRA    06D0
....................          { 
....................             lcd_gotoxy(7,2); 
06B0:  MOVLW  07
06B2:  MOVWF  xEC
06B4:  MOVLW  02
06B6:  MOVWF  xED
06B8:  RCALL  0464
....................             lcd_send_byte(0x00,0x0F); 
06BA:  CLRF   xF0
06BC:  MOVLW  0F
06BE:  MOVWF  xF1
06C0:  RCALL  03A2
....................             delay_ms(40); 
06C2:  MOVLW  28
06C4:  MOVWF  xEC
06C6:  RCALL  02A0
....................             lcd_send_byte(0x00,0x0C); 
06C8:  CLRF   xF0
06CA:  MOVLW  0C
06CC:  MOVWF  xF1
06CE:  RCALL  03A2
....................          } 
....................        
....................          delay_ms(5);  
06D0:  MOVLW  05
06D2:  MOVWF  xEC
06D4:  RCALL  02A0
....................       } 
....................       if(saat>=10)//Cift haneli rakamlarda ekranda basa 0 ATMAZ 
06D6:  MOVF   xD4,W
06D8:  SUBLW  09
06DA:  BC    0714
....................       { 
....................          lcd_gotoxy(6,2);//LCD belirtilen sütun ve satýra git komutu 
06DC:  MOVLW  06
06DE:  MOVWF  xEC
06E0:  MOVLW  02
06E2:  MOVWF  xED
06E4:  RCALL  0464
....................       
....................          printf(lcd_putc,"%2d",saat); 
06E6:  MOVFF  D4,E5
06EA:  MOVLW  11
06EC:  MOVWF  xE6
06EE:  RCALL  05C8
....................          if(j==1) 
06F0:  DECFSZ xD3,W
06F2:  BRA    0714
....................          { 
....................             lcd_gotoxy(7,2); 
06F4:  MOVLW  07
06F6:  MOVWF  xEC
06F8:  MOVLW  02
06FA:  MOVWF  xED
06FC:  RCALL  0464
....................             lcd_send_byte(0x00,0x0F); 
06FE:  CLRF   xF0
0700:  MOVLW  0F
0702:  MOVWF  xF1
0704:  RCALL  03A2
....................             delay_ms(40); 
0706:  MOVLW  28
0708:  MOVWF  xEC
070A:  RCALL  02A0
....................             lcd_send_byte(0x00,0x0C); 
070C:  CLRF   xF0
070E:  MOVLW  0C
0710:  MOVWF  xF1
0712:  RCALL  03A2
....................          } 
....................       } 
....................        
....................       if(dakika<10)//Tek haneli rakamlarda ekranda basa 0 ATAR 
0714:  MOVF   xD6,W
0716:  SUBLW  09
0718:  BNC   0754
....................       { 
....................          lcd_gotoxy(10,2);//LCD belirtilen sütun ve satýra git komutu 
071A:  MOVLW  0A
071C:  MOVWF  xEC
071E:  MOVLW  02
0720:  MOVWF  xED
0722:  RCALL  0464
....................          printf(lcd_putc,"%02d",dakika);  
0724:  MOVFF  D6,E5
0728:  MOVLW  01
072A:  MOVWF  xE6
072C:  RCALL  051E
....................          if(j==2) 
072E:  MOVF   xD3,W
0730:  SUBLW  02
0732:  BNZ   0754
....................          { 
....................             lcd_gotoxy(11,2); 
0734:  MOVLW  0B
0736:  MOVWF  xEC
0738:  MOVLW  02
073A:  MOVWF  xED
073C:  RCALL  0464
....................             lcd_send_byte(0x00,0x0F); 
073E:  CLRF   xF0
0740:  MOVLW  0F
0742:  MOVWF  xF1
0744:  RCALL  03A2
....................             delay_ms(40); 
0746:  MOVLW  28
0748:  MOVWF  xEC
074A:  RCALL  02A0
....................             lcd_send_byte(0x00,0x0C); 
074C:  CLRF   xF0
074E:  MOVLW  0C
0750:  MOVWF  xF1
0752:  RCALL  03A2
....................          } 
....................       } 
....................       if(dakika>=10)//Cift haneli rakamlarda ekranda basa 0 ATMAZ 
0754:  MOVF   xD6,W
0756:  SUBLW  09
0758:  BC    0794
....................       { 
....................          lcd_gotoxy(10,2);//LCD belirtilen sütun ve satýra git komutu 
075A:  MOVLW  0A
075C:  MOVWF  xEC
075E:  MOVLW  02
0760:  MOVWF  xED
0762:  RCALL  0464
....................          printf(lcd_putc,"%2d",dakika); 
0764:  MOVFF  D6,E5
0768:  MOVLW  11
076A:  MOVWF  xE6
076C:  RCALL  05C8
....................          if(j==2) 
076E:  MOVF   xD3,W
0770:  SUBLW  02
0772:  BNZ   0794
....................          { 
....................             lcd_gotoxy(11,2); 
0774:  MOVLW  0B
0776:  MOVWF  xEC
0778:  MOVLW  02
077A:  MOVWF  xED
077C:  RCALL  0464
....................             lcd_send_byte(0x00,0x0F); 
077E:  CLRF   xF0
0780:  MOVLW  0F
0782:  MOVWF  xF1
0784:  RCALL  03A2
....................             delay_ms(40); 
0786:  MOVLW  28
0788:  MOVWF  xEC
078A:  RCALL  02A0
....................             lcd_send_byte(0x00,0x0C); 
078C:  CLRF   xF0
078E:  MOVLW  0C
0790:  MOVWF  xF1
0792:  RCALL  03A2
....................          }     
....................       } 
....................        
....................       if(input(pin_b1)==0)//SOL TARAFA GECIS saat tarafý------------------------------RB1 
0794:  BTFSC  F81.1
0796:  BRA    07AC
....................       { 
....................          delay_ms(20); 
0798:  MOVLW  14
079A:  MOVWF  xEC
079C:  RCALL  02A0
....................          while(input(pin_b1)==0); 
079E:  BTFSS  F81.1
07A0:  BRA    079E
....................          j--; 
07A2:  DECF   xD3,F
....................          if(j==0) 
07A4:  MOVF   xD3,F
07A6:  BNZ   07AC
....................          {j=1;} 
07A8:  MOVLW  01
07AA:  MOVWF  xD3
....................       } 
....................     
....................       if(input(pin_b2)==0)//SAG TARAFA GECIS saat tarafý-----------------------------RB2 
07AC:  BTFSC  F81.2
07AE:  BRA    07C6
....................       { 
....................          delay_ms(20); 
07B0:  MOVLW  14
07B2:  MOVWF  xEC
07B4:  RCALL  02A0
....................          while(input(pin_b2)==0); 
07B6:  BTFSS  F81.2
07B8:  BRA    07B6
....................          j++; 
07BA:  INCF   xD3,F
....................          if(j==3) 
07BC:  MOVF   xD3,W
07BE:  SUBLW  03
07C0:  BNZ   07C6
....................          {j=2;} 
07C2:  MOVLW  02
07C4:  MOVWF  xD3
....................       } 
....................       
....................       if(j==1)//SOL TARAF BASLANGIC - BITIS SAAT AYARI 
07C6:  DECFSZ xD3,W
07C8:  BRA    07FC
....................       { 
....................          if(input(pin_b3)==0)// SAATI YUKARI SAYMA 
07CA:  BTFSC  F81.3
07CC:  BRA    07E2
....................          { 
....................             delay_ms(20); 
07CE:  MOVLW  14
07D0:  MOVWF  xEC
07D2:  RCALL  02A0
....................             while(input(pin_b3)==0); 
07D4:  BTFSS  F81.3
07D6:  BRA    07D4
....................             saat++; 
07D8:  INCF   xD4,F
....................             if(saat==24) 
07DA:  MOVF   xD4,W
07DC:  SUBLW  18
07DE:  BNZ   07E2
....................             {saat=0;} 
07E0:  CLRF   xD4
....................          } 
....................          if(input(pin_b4)==0)// SAATI ASAGI SAYMA 
07E2:  BTFSC  F81.4
07E4:  BRA    07FC
....................          { 
....................             delay_ms(20); 
07E6:  MOVLW  14
07E8:  MOVWF  xEC
07EA:  RCALL  02A0
....................             while(input(pin_b4)==0); 
07EC:  BTFSS  F81.4
07EE:  BRA    07EC
....................             saat--; 
07F0:  DECF   xD4,F
....................             if(saat==-1) 
07F2:  MOVF   xD4,W
07F4:  SUBLW  FF
07F6:  BNZ   07FC
....................             {saat=23;} 
07F8:  MOVLW  17
07FA:  MOVWF  xD4
....................          } 
....................       } 
....................    
....................       if(j==2)// SAG TARAF BASLANGIC- BITIS DAKIKA AYARI 
07FC:  MOVF   xD3,W
07FE:  SUBLW  02
0800:  BNZ   0834
....................       { 
....................          if(input(pin_b3)==0)// DAKIKA YUKARI SAYMA 
0802:  BTFSC  F81.3
0804:  BRA    081A
....................          { 
....................             delay_ms(20); 
0806:  MOVLW  14
0808:  MOVWF  xEC
080A:  RCALL  02A0
....................             while(input(pin_b3)==0); 
080C:  BTFSS  F81.3
080E:  BRA    080C
....................             dakika++;  
0810:  INCF   xD6,F
....................             if(dakika==60) 
0812:  MOVF   xD6,W
0814:  SUBLW  3C
0816:  BNZ   081A
....................             {dakika=0;}            
0818:  CLRF   xD6
....................          } 
....................          if(input(pin_b4)==0)// DAKIKA ASAGI SAYMA 
081A:  BTFSC  F81.4
081C:  BRA    0834
....................          { 
....................             delay_ms(20); 
081E:  MOVLW  14
0820:  MOVWF  xEC
0822:  RCALL  02A0
....................             while(input(pin_b4)==0); 
0824:  BTFSS  F81.4
0826:  BRA    0824
....................             dakika--; 
0828:  DECF   xD6,F
....................             if(dakika==-1) 
082A:  MOVF   xD6,W
082C:  SUBLW  FF
082E:  BNZ   0834
....................             {dakika=59;} 
0830:  MOVLW  3B
0832:  MOVWF  xD6
....................          } 
....................       } 
....................  
....................       if(input(pin_b5)==0)//OKEY BUTONUNA BASINCA FONKSIYONDAN CIKILIR ve GUN ICERISINDEKI CLOCK FONK. GERI DONER 
0834:  BTFSC  F81.5
0836:  BRA    0854
....................       { 
....................          delay_ms(20); 
0838:  MOVLW  14
083A:  MOVWF  xEC
083C:  RCALL  02A0
....................          while(input(pin_b5)==0); 
083E:  BTFSS  F81.5
0840:  BRA    083E
....................          zaman[0]=saat; 
0842:  MOVFF  D4,88
....................          zaman[1]=dakika;   
0846:  MOVFF  D6,89
....................          saat=12; 
084A:  MOVLW  0C
084C:  MOVWF  xD4
....................          dakika=0; 
084E:  CLRF   xD6
....................          b=1;// clock fonk. içindeki while() döngüsünden çýkaran deger 
0850:  MOVLW  01
0852:  MOVWF  xE4
....................       } 
0854:  BRA    0676
....................    } 
0856:  RETURN 0
.................... } 
....................  
....................  
.................... void sifreleme(int v,int z ) // günlerin belirlendiði ana fonksiyondaki i degeri buraya v olarak girer z degeri ise o günün kapalý olup olmadýgýný bildirir. 
.................... { 
....................    if(v==1)  //************************* PAZARTESI 1 **********************************************  
*
08D0:  DECFSZ xE4,W
08D2:  BRA    0AC6
....................    {      
....................       if(z==1) //ACIK 
08D4:  DECFSZ xE5,W
08D6:  BRA    0AA4
....................       {   
....................          sifre[0]='d';//ilk basamak acik kodu--yani pazartesi acik 
08D8:  MOVLW  64
08DA:  MOVWF  04
....................          //*******************  baslangic saati  *************** 
....................          if(ptesibas[0]<10) 
08DC:  MOVF   x8C,W
08DE:  SUBLW  09
08E0:  BNC   0902
....................          {  
....................             sifre[1]= 'c'; 
08E2:  MOVLW  63
08E4:  MOVWF  05
....................             c2= harf(ptesibas[0]%10); 
08E6:  MOVFF  8C,F6
08EA:  MOVLW  0A
08EC:  MOVWF  xF7
08EE:  RCALL  04F6
08F0:  MOVFF  00,F4
08F4:  MOVFF  00,F5
08F8:  RCALL  0858
08FA:  MOVFF  01,D9
....................             sifre[2]=c2; 
08FE:  MOVFF  D9,06
....................          } 
....................          if(ptesibas[0]>=10) 
0902:  MOVF   x8C,W
0904:  SUBLW  09
0906:  BC    094E
....................          {   
....................             c1= harf((ptesibas[0]-(ptesibas[0]%10))/10); 
0908:  MOVFF  8C,F6
090C:  MOVLW  0A
090E:  MOVWF  xF7
0910:  RCALL  04F6
0912:  MOVF   00,W
0914:  SUBWF  x8C,W
0916:  MOVWF  xF5
0918:  MOVWF  xF6
091A:  MOVLW  0A
091C:  MOVWF  xF7
091E:  RCALL  04F6
0920:  MOVFF  01,F4
0924:  MOVFF  01,F5
0928:  RCALL  0858
092A:  MOVFF  01,D8
....................             sifre[1]=c1; 
092E:  MOVFF  D8,05
....................             c2= harf(ptesibas[0]%10); 
0932:  MOVFF  8C,F6
0936:  MOVLW  0A
0938:  MOVWF  xF7
093A:  RCALL  04F6
093C:  MOVFF  00,F4
0940:  MOVFF  00,F5
0944:  RCALL  0858
0946:  MOVFF  01,D9
....................             sifre[2]=c2; 
094A:  MOVFF  D9,06
....................          }  
....................          //*******************  baslangic dakikasi *************** 
....................          if(ptesibas[1]<10) 
094E:  MOVF   x8D,W
0950:  SUBLW  09
0952:  BNC   0974
....................          { 
....................             sifre[3]='c'; 
0954:  MOVLW  63
0956:  MOVWF  07
....................             c1=harf(ptesibas[1]%10); 
0958:  MOVFF  8D,F6
095C:  MOVLW  0A
095E:  MOVWF  xF7
0960:  RCALL  04F6
0962:  MOVFF  00,F4
0966:  MOVFF  00,F5
096A:  RCALL  0858
096C:  MOVFF  01,D8
....................             sifre[4]=c1; 
0970:  MOVFF  D8,08
....................          } 
....................          if(ptesibas[1]>=10) 
0974:  MOVF   x8D,W
0976:  SUBLW  09
0978:  BC    09C0
....................          {   
....................             c1=harf((ptesibas[1]-(ptesibas[1]%10))/10); 
097A:  MOVFF  8D,F6
097E:  MOVLW  0A
0980:  MOVWF  xF7
0982:  RCALL  04F6
0984:  MOVF   00,W
0986:  SUBWF  x8D,W
0988:  MOVWF  xF5
098A:  MOVWF  xF6
098C:  MOVLW  0A
098E:  MOVWF  xF7
0990:  RCALL  04F6
0992:  MOVFF  01,F4
0996:  MOVFF  01,F5
099A:  RCALL  0858
099C:  MOVFF  01,D8
....................             sifre[3]=c1; 
09A0:  MOVFF  D8,07
....................             c2=harf(ptesibas[1]%10); 
09A4:  MOVFF  8D,F6
09A8:  MOVLW  0A
09AA:  MOVWF  xF7
09AC:  RCALL  04F6
09AE:  MOVFF  00,F4
09B2:  MOVFF  00,F5
09B6:  RCALL  0858
09B8:  MOVFF  01,D9
....................             sifre[4]=c2; 
09BC:  MOVFF  D9,08
....................          } 
....................          //***************  bitis saati  ************************** 
....................           
....................          if(ptesibit[0]<10) 
09C0:  MOVF   x8E,W
09C2:  SUBLW  09
09C4:  BNC   09E6
....................          { 
....................             sifre[5]='c'; 
09C6:  MOVLW  63
09C8:  MOVWF  09
....................             c1=harf(ptesibit[0]%10); 
09CA:  MOVFF  8E,F6
09CE:  MOVLW  0A
09D0:  MOVWF  xF7
09D2:  RCALL  04F6
09D4:  MOVFF  00,F4
09D8:  MOVFF  00,F5
09DC:  RCALL  0858
09DE:  MOVFF  01,D8
....................             sifre[6]=c1; 
09E2:  MOVFF  D8,0A
....................          } 
....................          if(ptesibit[0]>=10) 
09E6:  MOVF   x8E,W
09E8:  SUBLW  09
09EA:  BC    0A32
....................          { 
....................             c1=harf((ptesibit[0]-(ptesibit[0]%10))/10); 
09EC:  MOVFF  8E,F6
09F0:  MOVLW  0A
09F2:  MOVWF  xF7
09F4:  RCALL  04F6
09F6:  MOVF   00,W
09F8:  SUBWF  x8E,W
09FA:  MOVWF  xF5
09FC:  MOVWF  xF6
09FE:  MOVLW  0A
0A00:  MOVWF  xF7
0A02:  RCALL  04F6
0A04:  MOVFF  01,F4
0A08:  MOVFF  01,F5
0A0C:  RCALL  0858
0A0E:  MOVFF  01,D8
....................             sifre[5]=c1; 
0A12:  MOVFF  D8,09
....................             c2=harf(ptesibit[0]%10); 
0A16:  MOVFF  8E,F6
0A1A:  MOVLW  0A
0A1C:  MOVWF  xF7
0A1E:  RCALL  04F6
0A20:  MOVFF  00,F4
0A24:  MOVFF  00,F5
0A28:  RCALL  0858
0A2A:  MOVFF  01,D9
....................             sifre[6]=c2; 
0A2E:  MOVFF  D9,0A
....................          }  
....................           
....................          //*******************  bitis dakikasi   *************** 
....................          if(ptesibit[1]<10) 
0A32:  MOVF   x8F,W
0A34:  SUBLW  09
0A36:  BNC   0A58
....................          { 
....................             sifre[7]='c'; 
0A38:  MOVLW  63
0A3A:  MOVWF  0B
....................             c1=harf(ptesibit[1]%10); 
0A3C:  MOVFF  8F,F6
0A40:  MOVLW  0A
0A42:  MOVWF  xF7
0A44:  RCALL  04F6
0A46:  MOVFF  00,F4
0A4A:  MOVFF  00,F5
0A4E:  RCALL  0858
0A50:  MOVFF  01,D8
....................             sifre[8]=c1; 
0A54:  MOVFF  D8,0C
....................          } 
....................          if(ptesibit[1]>=10) 
0A58:  MOVF   x8F,W
0A5A:  SUBLW  09
0A5C:  BC    0AA4
....................          { 
....................             c1=harf((ptesibit[1]-(ptesibit[1]%10))/10); 
0A5E:  MOVFF  8F,F6
0A62:  MOVLW  0A
0A64:  MOVWF  xF7
0A66:  RCALL  04F6
0A68:  MOVF   00,W
0A6A:  SUBWF  x8F,W
0A6C:  MOVWF  xF5
0A6E:  MOVWF  xF6
0A70:  MOVLW  0A
0A72:  MOVWF  xF7
0A74:  RCALL  04F6
0A76:  MOVFF  01,F4
0A7A:  MOVFF  01,F5
0A7E:  RCALL  0858
0A80:  MOVFF  01,D8
....................             sifre[7]=c1; 
0A84:  MOVFF  D8,0B
....................             c2=harf(ptesibit[1]%10); 
0A88:  MOVFF  8F,F6
0A8C:  MOVLW  0A
0A8E:  MOVWF  xF7
0A90:  RCALL  04F6
0A92:  MOVFF  00,F4
0A96:  MOVFF  00,F5
0A9A:  RCALL  0858
0A9C:  MOVFF  01,D9
....................             sifre[8]=c2; 
0AA0:  MOVFF  D9,0C
....................          }  
....................       } 
....................        
....................       if(z==0) //KAPALI 
0AA4:  MOVF   xE5,F
0AA6:  BNZ   0AC6
....................       {   
....................          for(int kap=0;kap<9;kap++) 
0AA8:  CLRF   xE6
0AAA:  MOVF   xE6,W
0AAC:  SUBLW  08
0AAE:  BNC   0AC6
....................          { 
....................             sifre[kap]='c'; 
0AB0:  CLRF   03
0AB2:  MOVF   xE6,W
0AB4:  ADDLW  04
0AB6:  MOVWF  FE9
0AB8:  MOVLW  00
0ABA:  ADDWFC 03,W
0ABC:  MOVWF  FEA
0ABE:  MOVLW  63
0AC0:  MOVWF  FEF
0AC2:  INCF   xE6,F
0AC4:  BRA    0AAA
....................          } 
....................       } 
....................    } 
....................     
....................    if(v==2)  //************************* PAZARTESI 2 **********************************************  
0AC6:  MOVF   xE4,W
0AC8:  SUBLW  02
0ACA:  BTFSS  FD8.2
0ACC:  BRA    0CC2
....................    {      
....................       if(z==1) //ACIK 
0ACE:  DECFSZ xE5,W
0AD0:  BRA    0C9E
....................       {   
....................          sifre[9]='d';//ilk basamak acik kodu--yani pazartesi acik 
0AD2:  MOVLW  64
0AD4:  MOVWF  0D
....................          //*******************  baslangic saati  *************** 
....................          if(ptesibas2[0]<10) 
0AD6:  MOVF   xA8,W
0AD8:  SUBLW  09
0ADA:  BNC   0AFC
....................          {  
....................             sifre[10]= 'c'; 
0ADC:  MOVLW  63
0ADE:  MOVWF  0E
....................             c2= harf(ptesibas2[0]%10); 
0AE0:  MOVFF  A8,F6
0AE4:  MOVLW  0A
0AE6:  MOVWF  xF7
0AE8:  RCALL  04F6
0AEA:  MOVFF  00,F4
0AEE:  MOVFF  00,F5
0AF2:  RCALL  0858
0AF4:  MOVFF  01,D9
....................             sifre[11]=c2; 
0AF8:  MOVFF  D9,0F
....................          } 
....................          if(ptesibas2[0]>=10) 
0AFC:  MOVF   xA8,W
0AFE:  SUBLW  09
0B00:  BC    0B48
....................          {   
....................             c1= harf((ptesibas2[0]-(ptesibas2[0]%10))/10); 
0B02:  MOVFF  A8,F6
0B06:  MOVLW  0A
0B08:  MOVWF  xF7
0B0A:  RCALL  04F6
0B0C:  MOVF   00,W
0B0E:  SUBWF  xA8,W
0B10:  MOVWF  xF5
0B12:  MOVWF  xF6
0B14:  MOVLW  0A
0B16:  MOVWF  xF7
0B18:  RCALL  04F6
0B1A:  MOVFF  01,F4
0B1E:  MOVFF  01,F5
0B22:  RCALL  0858
0B24:  MOVFF  01,D8
....................             sifre[10]=c1; 
0B28:  MOVFF  D8,0E
....................             c2= harf(ptesibas2[0]%10); 
0B2C:  MOVFF  A8,F6
0B30:  MOVLW  0A
0B32:  MOVWF  xF7
0B34:  RCALL  04F6
0B36:  MOVFF  00,F4
0B3A:  MOVFF  00,F5
0B3E:  RCALL  0858
0B40:  MOVFF  01,D9
....................             sifre[11]=c2; 
0B44:  MOVFF  D9,0F
....................          }  
....................          //*******************  baslangic dakikasi *************** 
....................          if(ptesibas2[1]<10) 
0B48:  MOVF   xA9,W
0B4A:  SUBLW  09
0B4C:  BNC   0B6E
....................          { 
....................             sifre[12]='c'; 
0B4E:  MOVLW  63
0B50:  MOVWF  10
....................             c1=harf(ptesibas2[1]%10); 
0B52:  MOVFF  A9,F6
0B56:  MOVLW  0A
0B58:  MOVWF  xF7
0B5A:  RCALL  04F6
0B5C:  MOVFF  00,F4
0B60:  MOVFF  00,F5
0B64:  RCALL  0858
0B66:  MOVFF  01,D8
....................             sifre[13]=c1; 
0B6A:  MOVFF  D8,11
....................          } 
....................          if(ptesibas2[1]>=10) 
0B6E:  MOVF   xA9,W
0B70:  SUBLW  09
0B72:  BC    0BBA
....................          {   
....................             c1=harf((ptesibas2[1]-(ptesibas2[1]%10))/10); 
0B74:  MOVFF  A9,F6
0B78:  MOVLW  0A
0B7A:  MOVWF  xF7
0B7C:  RCALL  04F6
0B7E:  MOVF   00,W
0B80:  SUBWF  xA9,W
0B82:  MOVWF  xF5
0B84:  MOVWF  xF6
0B86:  MOVLW  0A
0B88:  MOVWF  xF7
0B8A:  RCALL  04F6
0B8C:  MOVFF  01,F4
0B90:  MOVFF  01,F5
0B94:  RCALL  0858
0B96:  MOVFF  01,D8
....................             sifre[12]=c1; 
0B9A:  MOVFF  D8,10
....................             c2=harf(ptesibas2[1]%10); 
0B9E:  MOVFF  A9,F6
0BA2:  MOVLW  0A
0BA4:  MOVWF  xF7
0BA6:  RCALL  04F6
0BA8:  MOVFF  00,F4
0BAC:  MOVFF  00,F5
0BB0:  RCALL  0858
0BB2:  MOVFF  01,D9
....................             sifre[13]=c2; 
0BB6:  MOVFF  D9,11
....................          } 
....................          //***************  bitis saati  ************************** 
....................           
....................          if(ptesibit2[0]<10) 
0BBA:  MOVF   xAA,W
0BBC:  SUBLW  09
0BBE:  BNC   0BE0
....................          { 
....................             sifre[14]='c'; 
0BC0:  MOVLW  63
0BC2:  MOVWF  12
....................             c1=harf(ptesibit2[0]%10); 
0BC4:  MOVFF  AA,F6
0BC8:  MOVLW  0A
0BCA:  MOVWF  xF7
0BCC:  RCALL  04F6
0BCE:  MOVFF  00,F4
0BD2:  MOVFF  00,F5
0BD6:  RCALL  0858
0BD8:  MOVFF  01,D8
....................             sifre[15]=c1; 
0BDC:  MOVFF  D8,13
....................          } 
....................          if(ptesibit2[0]>=10) 
0BE0:  MOVF   xAA,W
0BE2:  SUBLW  09
0BE4:  BC    0C2C
....................          { 
....................             c1=harf((ptesibit2[0]-(ptesibit2[0]%10))/10); 
0BE6:  MOVFF  AA,F6
0BEA:  MOVLW  0A
0BEC:  MOVWF  xF7
0BEE:  RCALL  04F6
0BF0:  MOVF   00,W
0BF2:  SUBWF  xAA,W
0BF4:  MOVWF  xF5
0BF6:  MOVWF  xF6
0BF8:  MOVLW  0A
0BFA:  MOVWF  xF7
0BFC:  RCALL  04F6
0BFE:  MOVFF  01,F4
0C02:  MOVFF  01,F5
0C06:  RCALL  0858
0C08:  MOVFF  01,D8
....................             sifre[14]=c1; 
0C0C:  MOVFF  D8,12
....................             c2=harf(ptesibit2[0]%10); 
0C10:  MOVFF  AA,F6
0C14:  MOVLW  0A
0C16:  MOVWF  xF7
0C18:  RCALL  04F6
0C1A:  MOVFF  00,F4
0C1E:  MOVFF  00,F5
0C22:  RCALL  0858
0C24:  MOVFF  01,D9
....................             sifre[15]=c2; 
0C28:  MOVFF  D9,13
....................          }  
....................           
....................          //*******************  bitis dakikasi   *************** 
....................          if(ptesibit2[1]<10) 
0C2C:  MOVF   xAB,W
0C2E:  SUBLW  09
0C30:  BNC   0C52
....................          { 
....................             sifre[16]='c'; 
0C32:  MOVLW  63
0C34:  MOVWF  14
....................             c1=harf(ptesibit2[1]%10); 
0C36:  MOVFF  AB,F6
0C3A:  MOVLW  0A
0C3C:  MOVWF  xF7
0C3E:  RCALL  04F6
0C40:  MOVFF  00,F4
0C44:  MOVFF  00,F5
0C48:  RCALL  0858
0C4A:  MOVFF  01,D8
....................             sifre[17]=c1; 
0C4E:  MOVFF  D8,15
....................          } 
....................          if(ptesibit2[1]>=10) 
0C52:  MOVF   xAB,W
0C54:  SUBLW  09
0C56:  BC    0C9E
....................          { 
....................             c1=harf((ptesibit2[1]-(ptesibit2[1]%10))/10); 
0C58:  MOVFF  AB,F6
0C5C:  MOVLW  0A
0C5E:  MOVWF  xF7
0C60:  RCALL  04F6
0C62:  MOVF   00,W
0C64:  SUBWF  xAB,W
0C66:  MOVWF  xF5
0C68:  MOVWF  xF6
0C6A:  MOVLW  0A
0C6C:  MOVWF  xF7
0C6E:  RCALL  04F6
0C70:  MOVFF  01,F4
0C74:  MOVFF  01,F5
0C78:  RCALL  0858
0C7A:  MOVFF  01,D8
....................             sifre[16]=c1; 
0C7E:  MOVFF  D8,14
....................             c2=harf(ptesibit2[1]%10); 
0C82:  MOVFF  AB,F6
0C86:  MOVLW  0A
0C88:  MOVWF  xF7
0C8A:  RCALL  04F6
0C8C:  MOVFF  00,F4
0C90:  MOVFF  00,F5
0C94:  RCALL  0858
0C96:  MOVFF  01,D9
....................             sifre[17]=c2; 
0C9A:  MOVFF  D9,15
....................          }  
....................       } 
....................        
....................       if(z==0) //KAPALI 
0C9E:  MOVF   xE5,F
0CA0:  BNZ   0CC2
....................       {   
....................          for(int kap=9;kap<18;kap++) 
0CA2:  MOVLW  09
0CA4:  MOVWF  xE7
0CA6:  MOVF   xE7,W
0CA8:  SUBLW  11
0CAA:  BNC   0CC2
....................          { 
....................             sifre[kap]='c'; 
0CAC:  CLRF   03
0CAE:  MOVF   xE7,W
0CB0:  ADDLW  04
0CB2:  MOVWF  FE9
0CB4:  MOVLW  00
0CB6:  ADDWFC 03,W
0CB8:  MOVWF  FEA
0CBA:  MOVLW  63
0CBC:  MOVWF  FEF
0CBE:  INCF   xE7,F
0CC0:  BRA    0CA6
....................          } 
....................       } 
....................    } 
....................     
....................    if(v==3)  //************************* SALI 1 ********************************************** 
0CC2:  MOVF   xE4,W
0CC4:  SUBLW  03
0CC6:  BTFSS  FD8.2
0CC8:  BRA    0EDC
....................    {      
....................       if(z==1) //ACIK 
0CCA:  DECFSZ xE5,W
0CCC:  BRA    0EB8
....................       {   
....................          sifre[18]='d';//ilk basamak acik kodu--yani pazartesi acik 
0CCE:  MOVLW  64
0CD0:  MOVWF  16
....................          //*******************  baslangic saati  *************** 
....................          if(salibas[0]<10) 
0CD2:  MOVF   x90,W
0CD4:  SUBLW  09
0CD6:  BNC   0CF8
....................          {  
....................             sifre[19]= 'c'; 
0CD8:  MOVLW  63
0CDA:  MOVWF  17
....................             c2= harf(salibas[0]%10); 
0CDC:  MOVFF  90,F6
0CE0:  MOVLW  0A
0CE2:  MOVWF  xF7
0CE4:  RCALL  04F6
0CE6:  MOVFF  00,F4
0CEA:  MOVFF  00,F5
0CEE:  RCALL  0858
0CF0:  MOVFF  01,D9
....................             sifre[20]=c2; 
0CF4:  MOVFF  D9,18
....................          } 
....................          if(salibas[0]>=10) 
0CF8:  MOVF   x90,W
0CFA:  SUBLW  09
0CFC:  BC    0D4A
....................          {   
....................             c1= harf((salibas[0]-(salibas[0]%10))/10); 
0CFE:  MOVFF  90,F6
0D02:  MOVLW  0A
0D04:  MOVWF  xF7
0D06:  CALL   04F6
0D0A:  MOVF   00,W
0D0C:  SUBWF  x90,W
0D0E:  MOVWF  xF5
0D10:  MOVWF  xF6
0D12:  MOVLW  0A
0D14:  MOVWF  xF7
0D16:  CALL   04F6
0D1A:  MOVFF  01,F4
0D1E:  MOVFF  01,F5
0D22:  RCALL  0858
0D24:  MOVFF  01,D8
....................             sifre[19]=c1; 
0D28:  MOVFF  D8,17
....................             c2= harf(salibas[0]%10); 
0D2C:  MOVFF  90,F6
0D30:  MOVLW  0A
0D32:  MOVWF  xF7
0D34:  CALL   04F6
0D38:  MOVFF  00,F4
0D3C:  MOVFF  00,F5
0D40:  RCALL  0858
0D42:  MOVFF  01,D9
....................             sifre[20]=c2; 
0D46:  MOVFF  D9,18
....................          }  
....................          //*******************  baslangic dakikasi *************** 
....................          if(salibas[1]<10) 
0D4A:  MOVF   x91,W
0D4C:  SUBLW  09
0D4E:  BNC   0D72
....................          { 
....................             sifre[21]='c'; 
0D50:  MOVLW  63
0D52:  MOVWF  19
....................             c1=harf(salibas[1]%10); 
0D54:  MOVFF  91,F6
0D58:  MOVLW  0A
0D5A:  MOVWF  xF7
0D5C:  CALL   04F6
0D60:  MOVFF  00,F4
0D64:  MOVFF  00,F5
0D68:  RCALL  0858
0D6A:  MOVFF  01,D8
....................             sifre[22]=c1; 
0D6E:  MOVFF  D8,1A
....................          } 
....................          if(salibas[1]>=10) 
0D72:  MOVF   x91,W
0D74:  SUBLW  09
0D76:  BC    0DC4
....................          {   
....................             c1=harf((salibas[1]-(salibas[1]%10))/10); 
0D78:  MOVFF  91,F6
0D7C:  MOVLW  0A
0D7E:  MOVWF  xF7
0D80:  CALL   04F6
0D84:  MOVF   00,W
0D86:  SUBWF  x91,W
0D88:  MOVWF  xF5
0D8A:  MOVWF  xF6
0D8C:  MOVLW  0A
0D8E:  MOVWF  xF7
0D90:  CALL   04F6
0D94:  MOVFF  01,F4
0D98:  MOVFF  01,F5
0D9C:  RCALL  0858
0D9E:  MOVFF  01,D8
....................             sifre[21]=c1; 
0DA2:  MOVFF  D8,19
....................             c2=harf(salibas[1]%10); 
0DA6:  MOVFF  91,F6
0DAA:  MOVLW  0A
0DAC:  MOVWF  xF7
0DAE:  CALL   04F6
0DB2:  MOVFF  00,F4
0DB6:  MOVFF  00,F5
0DBA:  RCALL  0858
0DBC:  MOVFF  01,D9
....................             sifre[22]=c2; 
0DC0:  MOVFF  D9,1A
....................          } 
....................          //***************  bitis saati  ************************** 
....................           
....................          if(salibit[0]<10) 
0DC4:  MOVF   x92,W
0DC6:  SUBLW  09
0DC8:  BNC   0DEC
....................          { 
....................             sifre[23]='c'; 
0DCA:  MOVLW  63
0DCC:  MOVWF  1B
....................             c1=harf(salibit[0]%10); 
0DCE:  MOVFF  92,F6
0DD2:  MOVLW  0A
0DD4:  MOVWF  xF7
0DD6:  CALL   04F6
0DDA:  MOVFF  00,F4
0DDE:  MOVFF  00,F5
0DE2:  RCALL  0858
0DE4:  MOVFF  01,D8
....................             sifre[24]=c1; 
0DE8:  MOVFF  D8,1C
....................          } 
....................          if(salibit[0]>=10) 
0DEC:  MOVF   x92,W
0DEE:  SUBLW  09
0DF0:  BC    0E3E
....................          { 
....................             c1=harf((salibit[0]-(salibit[0]%10))/10); 
0DF2:  MOVFF  92,F6
0DF6:  MOVLW  0A
0DF8:  MOVWF  xF7
0DFA:  CALL   04F6
0DFE:  MOVF   00,W
0E00:  SUBWF  x92,W
0E02:  MOVWF  xF5
0E04:  MOVWF  xF6
0E06:  MOVLW  0A
0E08:  MOVWF  xF7
0E0A:  CALL   04F6
0E0E:  MOVFF  01,F4
0E12:  MOVFF  01,F5
0E16:  RCALL  0858
0E18:  MOVFF  01,D8
....................             sifre[23]=c1; 
0E1C:  MOVFF  D8,1B
....................             c2=harf(salibit[0]%10); 
0E20:  MOVFF  92,F6
0E24:  MOVLW  0A
0E26:  MOVWF  xF7
0E28:  CALL   04F6
0E2C:  MOVFF  00,F4
0E30:  MOVFF  00,F5
0E34:  RCALL  0858
0E36:  MOVFF  01,D9
....................             sifre[24]=c2; 
0E3A:  MOVFF  D9,1C
....................          }  
....................           
....................          //*******************  bitis dakikasi   *************** 
....................          if(salibit[1]<10) 
0E3E:  MOVF   x93,W
0E40:  SUBLW  09
0E42:  BNC   0E66
....................          { 
....................             sifre[25]='c'; 
0E44:  MOVLW  63
0E46:  MOVWF  1D
....................             c1=harf(salibit[1]%10); 
0E48:  MOVFF  93,F6
0E4C:  MOVLW  0A
0E4E:  MOVWF  xF7
0E50:  CALL   04F6
0E54:  MOVFF  00,F4
0E58:  MOVFF  00,F5
0E5C:  RCALL  0858
0E5E:  MOVFF  01,D8
....................             sifre[26]=c1; 
0E62:  MOVFF  D8,1E
....................          } 
....................          if(salibit[1]>=10) 
0E66:  MOVF   x93,W
0E68:  SUBLW  09
0E6A:  BC    0EB8
....................          { 
....................             c1=harf((salibit[1]-(salibit[1]%10))/10); 
0E6C:  MOVFF  93,F6
0E70:  MOVLW  0A
0E72:  MOVWF  xF7
0E74:  CALL   04F6
0E78:  MOVF   00,W
0E7A:  SUBWF  x93,W
0E7C:  MOVWF  xF5
0E7E:  MOVWF  xF6
0E80:  MOVLW  0A
0E82:  MOVWF  xF7
0E84:  CALL   04F6
0E88:  MOVFF  01,F4
0E8C:  MOVFF  01,F5
0E90:  RCALL  0858
0E92:  MOVFF  01,D8
....................             sifre[25]=c1; 
0E96:  MOVFF  D8,1D
....................             c2=harf(salibit[1]%10); 
0E9A:  MOVFF  93,F6
0E9E:  MOVLW  0A
0EA0:  MOVWF  xF7
0EA2:  CALL   04F6
0EA6:  MOVFF  00,F4
0EAA:  MOVFF  00,F5
0EAE:  RCALL  0858
0EB0:  MOVFF  01,D9
....................             sifre[26]=c2; 
0EB4:  MOVFF  D9,1E
....................          }  
....................       } 
....................        
....................       if(z==0) //KAPALI 
0EB8:  MOVF   xE5,F
0EBA:  BNZ   0EDC
....................       {   
....................          for(int kap=18;kap<27;kap++) 
0EBC:  MOVLW  12
0EBE:  MOVWF  xE8
0EC0:  MOVF   xE8,W
0EC2:  SUBLW  1A
0EC4:  BNC   0EDC
....................          { 
....................             sifre[kap]='c'; 
0EC6:  CLRF   03
0EC8:  MOVF   xE8,W
0ECA:  ADDLW  04
0ECC:  MOVWF  FE9
0ECE:  MOVLW  00
0ED0:  ADDWFC 03,W
0ED2:  MOVWF  FEA
0ED4:  MOVLW  63
0ED6:  MOVWF  FEF
0ED8:  INCF   xE8,F
0EDA:  BRA    0EC0
....................          } 
....................       } 
....................    }   
....................     
....................    if(v==4)  //************************* SALI 2 ********************************************** 
0EDC:  MOVF   xE4,W
0EDE:  SUBLW  04
0EE0:  BTFSS  FD8.2
0EE2:  BRA    10FE
....................    {      
....................       if(z==1) //ACIK 
0EE4:  DECFSZ xE5,W
0EE6:  BRA    10DA
....................       {   
....................          sifre[27]='d';//ilk basamak acik kodu--yani pazartesi acik 
0EE8:  MOVLW  64
0EEA:  MOVWF  1F
....................          //*******************  baslangic saati  *************** 
....................          if(salibas2[0]<10) 
0EEC:  MOVF   xAC,W
0EEE:  SUBLW  09
0EF0:  BNC   0F14
....................          {  
....................             sifre[28]= 'c'; 
0EF2:  MOVLW  63
0EF4:  MOVWF  20
....................             c2= harf(salibas2[0]%10); 
0EF6:  MOVFF  AC,F6
0EFA:  MOVLW  0A
0EFC:  MOVWF  xF7
0EFE:  CALL   04F6
0F02:  MOVFF  00,F4
0F06:  MOVFF  00,F5
0F0A:  RCALL  0858
0F0C:  MOVFF  01,D9
....................             sifre[29]=c2; 
0F10:  MOVFF  D9,21
....................          } 
....................          if(salibas2[0]>=10) 
0F14:  MOVF   xAC,W
0F16:  SUBLW  09
0F18:  BC    0F66
....................          {   
....................             c1= harf((salibas2[0]-(salibas2[0]%10))/10); 
0F1A:  MOVFF  AC,F6
0F1E:  MOVLW  0A
0F20:  MOVWF  xF7
0F22:  CALL   04F6
0F26:  MOVF   00,W
0F28:  SUBWF  xAC,W
0F2A:  MOVWF  xF5
0F2C:  MOVWF  xF6
0F2E:  MOVLW  0A
0F30:  MOVWF  xF7
0F32:  CALL   04F6
0F36:  MOVFF  01,F4
0F3A:  MOVFF  01,F5
0F3E:  RCALL  0858
0F40:  MOVFF  01,D8
....................             sifre[28]=c1; 
0F44:  MOVFF  D8,20
....................             c2= harf(salibas2[0]%10); 
0F48:  MOVFF  AC,F6
0F4C:  MOVLW  0A
0F4E:  MOVWF  xF7
0F50:  CALL   04F6
0F54:  MOVFF  00,F4
0F58:  MOVFF  00,F5
0F5C:  RCALL  0858
0F5E:  MOVFF  01,D9
....................             sifre[29]=c2; 
0F62:  MOVFF  D9,21
....................          }  
....................          //*******************  baslangic dakikasi *************** 
....................          if(salibas2[1]<10) 
0F66:  MOVF   xAD,W
0F68:  SUBLW  09
0F6A:  BNC   0F8E
....................          { 
....................             sifre[30]='c'; 
0F6C:  MOVLW  63
0F6E:  MOVWF  22
....................             c1=harf(salibas2[1]%10); 
0F70:  MOVFF  AD,F6
0F74:  MOVLW  0A
0F76:  MOVWF  xF7
0F78:  CALL   04F6
0F7C:  MOVFF  00,F4
0F80:  MOVFF  00,F5
0F84:  RCALL  0858
0F86:  MOVFF  01,D8
....................             sifre[31]=c1; 
0F8A:  MOVFF  D8,23
....................          } 
....................          if(salibas2[1]>=10) 
0F8E:  MOVF   xAD,W
0F90:  SUBLW  09
0F92:  BC    0FE0
....................          {   
....................             c1=harf((salibas2[1]-(salibas2[1]%10))/10); 
0F94:  MOVFF  AD,F6
0F98:  MOVLW  0A
0F9A:  MOVWF  xF7
0F9C:  CALL   04F6
0FA0:  MOVF   00,W
0FA2:  SUBWF  xAD,W
0FA4:  MOVWF  xF5
0FA6:  MOVWF  xF6
0FA8:  MOVLW  0A
0FAA:  MOVWF  xF7
0FAC:  CALL   04F6
0FB0:  MOVFF  01,F4
0FB4:  MOVFF  01,F5
0FB8:  RCALL  0858
0FBA:  MOVFF  01,D8
....................             sifre[30]=c1; 
0FBE:  MOVFF  D8,22
....................             c2=harf(salibas2[1]%10); 
0FC2:  MOVFF  AD,F6
0FC6:  MOVLW  0A
0FC8:  MOVWF  xF7
0FCA:  CALL   04F6
0FCE:  MOVFF  00,F4
0FD2:  MOVFF  00,F5
0FD6:  RCALL  0858
0FD8:  MOVFF  01,D9
....................             sifre[31]=c2; 
0FDC:  MOVFF  D9,23
....................          } 
....................          //***************  bitis saati  ************************** 
....................           
....................          if(salibit2[0]<10) 
0FE0:  MOVF   xAE,W
0FE2:  SUBLW  09
0FE4:  BNC   1008
....................          { 
....................             sifre[32]='c'; 
0FE6:  MOVLW  63
0FE8:  MOVWF  24
....................             c1=harf(salibit2[0]%10); 
0FEA:  MOVFF  AE,F6
0FEE:  MOVLW  0A
0FF0:  MOVWF  xF7
0FF2:  CALL   04F6
0FF6:  MOVFF  00,F4
0FFA:  MOVFF  00,F5
0FFE:  RCALL  0858
1000:  MOVFF  01,D8
....................             sifre[33]=c1; 
1004:  MOVFF  D8,25
....................          } 
....................          if(salibit2[0]>=10) 
1008:  MOVF   xAE,W
100A:  SUBLW  09
100C:  BC    105A
....................          { 
....................             c1=harf((salibit2[0]-(salibit2[0]%10))/10); 
100E:  MOVFF  AE,F6
1012:  MOVLW  0A
1014:  MOVWF  xF7
1016:  CALL   04F6
101A:  MOVF   00,W
101C:  SUBWF  xAE,W
101E:  MOVWF  xF5
1020:  MOVWF  xF6
1022:  MOVLW  0A
1024:  MOVWF  xF7
1026:  CALL   04F6
102A:  MOVFF  01,F4
102E:  MOVFF  01,F5
1032:  RCALL  0858
1034:  MOVFF  01,D8
....................             sifre[32]=c1; 
1038:  MOVFF  D8,24
....................             c2=harf(salibit2[0]%10); 
103C:  MOVFF  AE,F6
1040:  MOVLW  0A
1042:  MOVWF  xF7
1044:  CALL   04F6
1048:  MOVFF  00,F4
104C:  MOVFF  00,F5
1050:  RCALL  0858
1052:  MOVFF  01,D9
....................             sifre[33]=c2; 
1056:  MOVFF  D9,25
....................          }  
....................           
....................          //*******************  bitis dakikasi   *************** 
....................          if(salibit2[1]<10) 
105A:  MOVF   xAF,W
105C:  SUBLW  09
105E:  BNC   1084
....................          { 
....................             sifre[34]='c'; 
1060:  MOVLW  63
1062:  MOVWF  26
....................             c1=harf(salibit2[1]%10); 
1064:  MOVFF  AF,F6
1068:  MOVLW  0A
106A:  MOVWF  xF7
106C:  CALL   04F6
1070:  MOVFF  00,F4
1074:  MOVFF  00,F5
1078:  CALL   0858
107C:  MOVFF  01,D8
....................             sifre[35]=c1; 
1080:  MOVFF  D8,27
....................          } 
....................          if(salibit2[1]>=10) 
1084:  MOVF   xAF,W
1086:  SUBLW  09
1088:  BC    10DA
....................          { 
....................             c1=harf((salibit2[1]-(salibit2[1]%10))/10); 
108A:  MOVFF  AF,F6
108E:  MOVLW  0A
1090:  MOVWF  xF7
1092:  CALL   04F6
1096:  MOVF   00,W
1098:  SUBWF  xAF,W
109A:  MOVWF  xF5
109C:  MOVWF  xF6
109E:  MOVLW  0A
10A0:  MOVWF  xF7
10A2:  CALL   04F6
10A6:  MOVFF  01,F4
10AA:  MOVFF  01,F5
10AE:  CALL   0858
10B2:  MOVFF  01,D8
....................             sifre[34]=c1; 
10B6:  MOVFF  D8,26
....................             c2=harf(salibit2[1]%10); 
10BA:  MOVFF  AF,F6
10BE:  MOVLW  0A
10C0:  MOVWF  xF7
10C2:  CALL   04F6
10C6:  MOVFF  00,F4
10CA:  MOVFF  00,F5
10CE:  CALL   0858
10D2:  MOVFF  01,D9
....................             sifre[35]=c2; 
10D6:  MOVFF  D9,27
....................          }       
....................       } 
....................        
....................       if(z==0) //KAPALI 
10DA:  MOVF   xE5,F
10DC:  BNZ   10FE
....................       {   
....................          for(int kap=27;kap<36;kap++) 
10DE:  MOVLW  1B
10E0:  MOVWF  xE9
10E2:  MOVF   xE9,W
10E4:  SUBLW  23
10E6:  BNC   10FE
....................          { 
....................             sifre[kap]='c'; 
10E8:  CLRF   03
10EA:  MOVF   xE9,W
10EC:  ADDLW  04
10EE:  MOVWF  FE9
10F0:  MOVLW  00
10F2:  ADDWFC 03,W
10F4:  MOVWF  FEA
10F6:  MOVLW  63
10F8:  MOVWF  FEF
10FA:  INCF   xE9,F
10FC:  BRA    10E2
....................          } 
....................       } 
....................    }   
....................     
....................     
....................    if(v==5)  //************************* CARSAMBA 1 ********************************************** 
10FE:  MOVF   xE4,W
1100:  SUBLW  05
1102:  BTFSS  FD8.2
1104:  BRA    1332
....................    {      
....................       if(z==1) //ACIK 
1106:  DECFSZ xE5,W
1108:  BRA    130E
....................       {   
....................          sifre[36]='d';//ilk basamak acik kodu--yani pazartesi acik 
110A:  MOVLW  64
110C:  MOVWF  28
....................          //*******************  baslangic saati  *************** 
....................          if(carbas[0]<10) 
110E:  MOVF   x94,W
1110:  SUBLW  09
1112:  BNC   1138
....................          {  
....................             sifre[37]= 'c'; 
1114:  MOVLW  63
1116:  MOVWF  29
....................             c2= harf(carbas[0]%10); 
1118:  MOVFF  94,F6
111C:  MOVLW  0A
111E:  MOVWF  xF7
1120:  CALL   04F6
1124:  MOVFF  00,F4
1128:  MOVFF  00,F5
112C:  CALL   0858
1130:  MOVFF  01,D9
....................             sifre[38]=c2; 
1134:  MOVFF  D9,2A
....................          } 
....................          if(carbas[0]>=10) 
1138:  MOVF   x94,W
113A:  SUBLW  09
113C:  BC    118E
....................          {   
....................             c1= harf((carbas[0]-(carbas[0]%10))/10); 
113E:  MOVFF  94,F6
1142:  MOVLW  0A
1144:  MOVWF  xF7
1146:  CALL   04F6
114A:  MOVF   00,W
114C:  SUBWF  x94,W
114E:  MOVWF  xF5
1150:  MOVWF  xF6
1152:  MOVLW  0A
1154:  MOVWF  xF7
1156:  CALL   04F6
115A:  MOVFF  01,F4
115E:  MOVFF  01,F5
1162:  CALL   0858
1166:  MOVFF  01,D8
....................             sifre[37]=c1; 
116A:  MOVFF  D8,29
....................             c2= harf(carbas[0]%10); 
116E:  MOVFF  94,F6
1172:  MOVLW  0A
1174:  MOVWF  xF7
1176:  CALL   04F6
117A:  MOVFF  00,F4
117E:  MOVFF  00,F5
1182:  CALL   0858
1186:  MOVFF  01,D9
....................             sifre[38]=c2; 
118A:  MOVFF  D9,2A
....................          }  
....................          //*******************  baslangic dakikasi *************** 
....................          if(carbas[1]<10) 
118E:  MOVF   x95,W
1190:  SUBLW  09
1192:  BNC   11B8
....................          { 
....................             sifre[39]='c'; 
1194:  MOVLW  63
1196:  MOVWF  2B
....................             c1=harf(carbas[1]%10); 
1198:  MOVFF  95,F6
119C:  MOVLW  0A
119E:  MOVWF  xF7
11A0:  CALL   04F6
11A4:  MOVFF  00,F4
11A8:  MOVFF  00,F5
11AC:  CALL   0858
11B0:  MOVFF  01,D8
....................             sifre[40]=c1; 
11B4:  MOVFF  D8,2C
....................          } 
....................          if(carbas[1]>=10) 
11B8:  MOVF   x95,W
11BA:  SUBLW  09
11BC:  BC    120E
....................          {   
....................             c1=harf((carbas[1]-(carbas[1]%10))/10); 
11BE:  MOVFF  95,F6
11C2:  MOVLW  0A
11C4:  MOVWF  xF7
11C6:  CALL   04F6
11CA:  MOVF   00,W
11CC:  SUBWF  x95,W
11CE:  MOVWF  xF5
11D0:  MOVWF  xF6
11D2:  MOVLW  0A
11D4:  MOVWF  xF7
11D6:  CALL   04F6
11DA:  MOVFF  01,F4
11DE:  MOVFF  01,F5
11E2:  CALL   0858
11E6:  MOVFF  01,D8
....................             sifre[39]=c1; 
11EA:  MOVFF  D8,2B
....................             c2=harf(carbas[1]%10); 
11EE:  MOVFF  95,F6
11F2:  MOVLW  0A
11F4:  MOVWF  xF7
11F6:  CALL   04F6
11FA:  MOVFF  00,F4
11FE:  MOVFF  00,F5
1202:  CALL   0858
1206:  MOVFF  01,D9
....................             sifre[40]=c2; 
120A:  MOVFF  D9,2C
....................          } 
....................          //***************  bitis saati  ************************** 
....................           
....................          if(carbit[0]<10) 
120E:  MOVF   x96,W
1210:  SUBLW  09
1212:  BNC   1238
....................          { 
....................             sifre[41]='c'; 
1214:  MOVLW  63
1216:  MOVWF  2D
....................             c1=harf(carbit[0]%10); 
1218:  MOVFF  96,F6
121C:  MOVLW  0A
121E:  MOVWF  xF7
1220:  CALL   04F6
1224:  MOVFF  00,F4
1228:  MOVFF  00,F5
122C:  CALL   0858
1230:  MOVFF  01,D8
....................             sifre[42]=c1; 
1234:  MOVFF  D8,2E
....................          } 
....................          if(carbit[0]>=10) 
1238:  MOVF   x96,W
123A:  SUBLW  09
123C:  BC    128E
....................          { 
....................             c1=harf((carbit[0]-(carbit[0]%10))/10); 
123E:  MOVFF  96,F6
1242:  MOVLW  0A
1244:  MOVWF  xF7
1246:  CALL   04F6
124A:  MOVF   00,W
124C:  SUBWF  x96,W
124E:  MOVWF  xF5
1250:  MOVWF  xF6
1252:  MOVLW  0A
1254:  MOVWF  xF7
1256:  CALL   04F6
125A:  MOVFF  01,F4
125E:  MOVFF  01,F5
1262:  CALL   0858
1266:  MOVFF  01,D8
....................             sifre[41]=c1; 
126A:  MOVFF  D8,2D
....................             c2=harf(carbit[0]%10); 
126E:  MOVFF  96,F6
1272:  MOVLW  0A
1274:  MOVWF  xF7
1276:  CALL   04F6
127A:  MOVFF  00,F4
127E:  MOVFF  00,F5
1282:  CALL   0858
1286:  MOVFF  01,D9
....................             sifre[42]=c2; 
128A:  MOVFF  D9,2E
....................          }  
....................           
....................          //*******************  bitis dakikasi   *************** 
....................          if(carbit[1]<10) 
128E:  MOVF   x97,W
1290:  SUBLW  09
1292:  BNC   12B8
....................          { 
....................             sifre[43]='c'; 
1294:  MOVLW  63
1296:  MOVWF  2F
....................             c1=harf(carbit[1]%10); 
1298:  MOVFF  97,F6
129C:  MOVLW  0A
129E:  MOVWF  xF7
12A0:  CALL   04F6
12A4:  MOVFF  00,F4
12A8:  MOVFF  00,F5
12AC:  CALL   0858
12B0:  MOVFF  01,D8
....................             sifre[44]=c1; 
12B4:  MOVFF  D8,30
....................          } 
....................          if(carbit[1]>=10) 
12B8:  MOVF   x97,W
12BA:  SUBLW  09
12BC:  BC    130E
....................          { 
....................             c1=harf((carbit[1]-(carbit[1]%10))/10); 
12BE:  MOVFF  97,F6
12C2:  MOVLW  0A
12C4:  MOVWF  xF7
12C6:  CALL   04F6
12CA:  MOVF   00,W
12CC:  SUBWF  x97,W
12CE:  MOVWF  xF5
12D0:  MOVWF  xF6
12D2:  MOVLW  0A
12D4:  MOVWF  xF7
12D6:  CALL   04F6
12DA:  MOVFF  01,F4
12DE:  MOVFF  01,F5
12E2:  CALL   0858
12E6:  MOVFF  01,D8
....................             sifre[43]=c1; 
12EA:  MOVFF  D8,2F
....................             c2=harf(carbit[1]%10); 
12EE:  MOVFF  97,F6
12F2:  MOVLW  0A
12F4:  MOVWF  xF7
12F6:  CALL   04F6
12FA:  MOVFF  00,F4
12FE:  MOVFF  00,F5
1302:  CALL   0858
1306:  MOVFF  01,D9
....................             sifre[44]=c2; 
130A:  MOVFF  D9,30
....................          }   
....................       } 
....................        
....................       if(z==0) //KAPALI 
130E:  MOVF   xE5,F
1310:  BNZ   1332
....................       {   
....................          for(int kap=36;kap<45;kap++) 
1312:  MOVLW  24
1314:  MOVWF  xEA
1316:  MOVF   xEA,W
1318:  SUBLW  2C
131A:  BNC   1332
....................          { 
....................             sifre[kap]='c'; 
131C:  CLRF   03
131E:  MOVF   xEA,W
1320:  ADDLW  04
1322:  MOVWF  FE9
1324:  MOVLW  00
1326:  ADDWFC 03,W
1328:  MOVWF  FEA
132A:  MOVLW  63
132C:  MOVWF  FEF
132E:  INCF   xEA,F
1330:  BRA    1316
....................          } 
....................       } 
....................    } 
....................     
....................    if(v==6)  //************************* CARSAMBA 2 ********************************************** 
1332:  MOVF   xE4,W
1334:  SUBLW  06
1336:  BTFSS  FD8.2
1338:  BRA    1566
....................    {      
....................       if(z==1) //ACIK 
133A:  DECFSZ xE5,W
133C:  BRA    1542
....................       {   
....................          sifre[45]='d';//ilk basamak acik kodu--yani pazartesi acik 
133E:  MOVLW  64
1340:  MOVWF  31
....................          //*******************  baslangic saati  *************** 
....................          if(carbas2[0]<10) 
1342:  MOVF   xB0,W
1344:  SUBLW  09
1346:  BNC   136C
....................          {  
....................             sifre[46]= 'c'; 
1348:  MOVLW  63
134A:  MOVWF  32
....................             c2= harf(carbas2[0]%10); 
134C:  MOVFF  B0,F6
1350:  MOVLW  0A
1352:  MOVWF  xF7
1354:  CALL   04F6
1358:  MOVFF  00,F4
135C:  MOVFF  00,F5
1360:  CALL   0858
1364:  MOVFF  01,D9
....................             sifre[47]=c2; 
1368:  MOVFF  D9,33
....................          } 
....................          if(carbas2[0]>=10) 
136C:  MOVF   xB0,W
136E:  SUBLW  09
1370:  BC    13C2
....................          {   
....................             c1= harf((carbas2[0]-(carbas2[0]%10))/10); 
1372:  MOVFF  B0,F6
1376:  MOVLW  0A
1378:  MOVWF  xF7
137A:  CALL   04F6
137E:  MOVF   00,W
1380:  SUBWF  xB0,W
1382:  MOVWF  xF5
1384:  MOVWF  xF6
1386:  MOVLW  0A
1388:  MOVWF  xF7
138A:  CALL   04F6
138E:  MOVFF  01,F4
1392:  MOVFF  01,F5
1396:  CALL   0858
139A:  MOVFF  01,D8
....................             sifre[46]=c1; 
139E:  MOVFF  D8,32
....................             c2= harf(carbas2[0]%10); 
13A2:  MOVFF  B0,F6
13A6:  MOVLW  0A
13A8:  MOVWF  xF7
13AA:  CALL   04F6
13AE:  MOVFF  00,F4
13B2:  MOVFF  00,F5
13B6:  CALL   0858
13BA:  MOVFF  01,D9
....................             sifre[47]=c2; 
13BE:  MOVFF  D9,33
....................          }  
....................          //*******************  baslangic dakikasi *************** 
....................          if(carbas2[1]<10) 
13C2:  MOVF   xB1,W
13C4:  SUBLW  09
13C6:  BNC   13EC
....................          { 
....................             sifre[48]='c'; 
13C8:  MOVLW  63
13CA:  MOVWF  34
....................             c1=harf(carbas2[1]%10); 
13CC:  MOVFF  B1,F6
13D0:  MOVLW  0A
13D2:  MOVWF  xF7
13D4:  CALL   04F6
13D8:  MOVFF  00,F4
13DC:  MOVFF  00,F5
13E0:  CALL   0858
13E4:  MOVFF  01,D8
....................             sifre[49]=c1; 
13E8:  MOVFF  D8,35
....................          } 
....................          if(carbas2[1]>=10) 
13EC:  MOVF   xB1,W
13EE:  SUBLW  09
13F0:  BC    1442
....................          {   
....................             c1=harf((carbas2[1]-(carbas2[1]%10))/10); 
13F2:  MOVFF  B1,F6
13F6:  MOVLW  0A
13F8:  MOVWF  xF7
13FA:  CALL   04F6
13FE:  MOVF   00,W
1400:  SUBWF  xB1,W
1402:  MOVWF  xF5
1404:  MOVWF  xF6
1406:  MOVLW  0A
1408:  MOVWF  xF7
140A:  CALL   04F6
140E:  MOVFF  01,F4
1412:  MOVFF  01,F5
1416:  CALL   0858
141A:  MOVFF  01,D8
....................             sifre[48]=c1; 
141E:  MOVFF  D8,34
....................             c2=harf(carbas2[1]%10); 
1422:  MOVFF  B1,F6
1426:  MOVLW  0A
1428:  MOVWF  xF7
142A:  CALL   04F6
142E:  MOVFF  00,F4
1432:  MOVFF  00,F5
1436:  CALL   0858
143A:  MOVFF  01,D9
....................             sifre[49]=c2; 
143E:  MOVFF  D9,35
....................          } 
....................          //***************  bitis saati  ************************** 
....................           
....................          if(carbit2[0]<10) 
1442:  MOVF   xB2,W
1444:  SUBLW  09
1446:  BNC   146C
....................          { 
....................             sifre[50]='c'; 
1448:  MOVLW  63
144A:  MOVWF  36
....................             c1=harf(carbit2[0]%10); 
144C:  MOVFF  B2,F6
1450:  MOVLW  0A
1452:  MOVWF  xF7
1454:  CALL   04F6
1458:  MOVFF  00,F4
145C:  MOVFF  00,F5
1460:  CALL   0858
1464:  MOVFF  01,D8
....................             sifre[51]=c1; 
1468:  MOVFF  D8,37
....................          } 
....................          if(carbit2[0]>=10) 
146C:  MOVF   xB2,W
146E:  SUBLW  09
1470:  BC    14C2
....................          { 
....................             c1=harf((carbit2[0]-(carbit2[0]%10))/10); 
1472:  MOVFF  B2,F6
1476:  MOVLW  0A
1478:  MOVWF  xF7
147A:  CALL   04F6
147E:  MOVF   00,W
1480:  SUBWF  xB2,W
1482:  MOVWF  xF5
1484:  MOVWF  xF6
1486:  MOVLW  0A
1488:  MOVWF  xF7
148A:  CALL   04F6
148E:  MOVFF  01,F4
1492:  MOVFF  01,F5
1496:  CALL   0858
149A:  MOVFF  01,D8
....................             sifre[50]=c1; 
149E:  MOVFF  D8,36
....................             c2=harf(carbit2[0]%10); 
14A2:  MOVFF  B2,F6
14A6:  MOVLW  0A
14A8:  MOVWF  xF7
14AA:  CALL   04F6
14AE:  MOVFF  00,F4
14B2:  MOVFF  00,F5
14B6:  CALL   0858
14BA:  MOVFF  01,D9
....................             sifre[51]=c2; 
14BE:  MOVFF  D9,37
....................          }  
....................           
....................          //*******************  bitis dakikasi   *************** 
....................          if(carbit2[1]<10) 
14C2:  MOVF   xB3,W
14C4:  SUBLW  09
14C6:  BNC   14EC
....................          { 
....................             sifre[52]='c'; 
14C8:  MOVLW  63
14CA:  MOVWF  38
....................             c1=harf(carbit2[1]%10); 
14CC:  MOVFF  B3,F6
14D0:  MOVLW  0A
14D2:  MOVWF  xF7
14D4:  CALL   04F6
14D8:  MOVFF  00,F4
14DC:  MOVFF  00,F5
14E0:  CALL   0858
14E4:  MOVFF  01,D8
....................             sifre[53]=c1; 
14E8:  MOVFF  D8,39
....................          } 
....................          if(carbit2[1]>=10) 
14EC:  MOVF   xB3,W
14EE:  SUBLW  09
14F0:  BC    1542
....................          { 
....................             c1=harf((carbit2[1]-(carbit2[1]%10))/10); 
14F2:  MOVFF  B3,F6
14F6:  MOVLW  0A
14F8:  MOVWF  xF7
14FA:  CALL   04F6
14FE:  MOVF   00,W
1500:  SUBWF  xB3,W
1502:  MOVWF  xF5
1504:  MOVWF  xF6
1506:  MOVLW  0A
1508:  MOVWF  xF7
150A:  CALL   04F6
150E:  MOVFF  01,F4
1512:  MOVFF  01,F5
1516:  CALL   0858
151A:  MOVFF  01,D8
....................             sifre[52]=c1; 
151E:  MOVFF  D8,38
....................             c2=harf(carbit2[1]%10); 
1522:  MOVFF  B3,F6
1526:  MOVLW  0A
1528:  MOVWF  xF7
152A:  CALL   04F6
152E:  MOVFF  00,F4
1532:  MOVFF  00,F5
1536:  CALL   0858
153A:  MOVFF  01,D9
....................             sifre[53]=c2; 
153E:  MOVFF  D9,39
....................          }  
....................       } 
....................        
....................       if(z==0) //KAPALI 
1542:  MOVF   xE5,F
1544:  BNZ   1566
....................       {   
....................          for(int kap=45;kap<54;kap++) 
1546:  MOVLW  2D
1548:  MOVWF  xEB
154A:  MOVF   xEB,W
154C:  SUBLW  35
154E:  BNC   1566
....................          { 
....................             sifre[kap]='c'; 
1550:  CLRF   03
1552:  MOVF   xEB,W
1554:  ADDLW  04
1556:  MOVWF  FE9
1558:  MOVLW  00
155A:  ADDWFC 03,W
155C:  MOVWF  FEA
155E:  MOVLW  63
1560:  MOVWF  FEF
1562:  INCF   xEB,F
1564:  BRA    154A
....................          } 
....................       } 
....................    } 
....................    if(v==7)  //************************* PERSEMBE 1 ********************************************** 
1566:  MOVF   xE4,W
1568:  SUBLW  07
156A:  BTFSS  FD8.2
156C:  BRA    179A
....................    {      
....................       if(z==1) //ACIK 
156E:  DECFSZ xE5,W
1570:  BRA    1776
....................       {   
....................          sifre[54]='d';//ilk basamak acik kodu--yani pazartesi acik 
1572:  MOVLW  64
1574:  MOVWF  3A
....................          //*******************  baslangic saati  *************** 
....................          if(perbas[0]<10) 
1576:  MOVF   x98,W
1578:  SUBLW  09
157A:  BNC   15A0
....................          {  
....................             sifre[55]= 'c'; 
157C:  MOVLW  63
157E:  MOVWF  3B
....................             c2= harf(perbas[0]%10); 
1580:  MOVFF  98,F6
1584:  MOVLW  0A
1586:  MOVWF  xF7
1588:  CALL   04F6
158C:  MOVFF  00,F4
1590:  MOVFF  00,F5
1594:  CALL   0858
1598:  MOVFF  01,D9
....................             sifre[56]=c2; 
159C:  MOVFF  D9,3C
....................          } 
....................          if(perbas[0]>=10) 
15A0:  MOVF   x98,W
15A2:  SUBLW  09
15A4:  BC    15F6
....................          {   
....................             c1= harf((perbas[0]-(perbas[0]%10))/10); 
15A6:  MOVFF  98,F6
15AA:  MOVLW  0A
15AC:  MOVWF  xF7
15AE:  CALL   04F6
15B2:  MOVF   00,W
15B4:  SUBWF  x98,W
15B6:  MOVWF  xF5
15B8:  MOVWF  xF6
15BA:  MOVLW  0A
15BC:  MOVWF  xF7
15BE:  CALL   04F6
15C2:  MOVFF  01,F4
15C6:  MOVFF  01,F5
15CA:  CALL   0858
15CE:  MOVFF  01,D8
....................             sifre[55]=c1; 
15D2:  MOVFF  D8,3B
....................             c2= harf(perbas[0]%10); 
15D6:  MOVFF  98,F6
15DA:  MOVLW  0A
15DC:  MOVWF  xF7
15DE:  CALL   04F6
15E2:  MOVFF  00,F4
15E6:  MOVFF  00,F5
15EA:  CALL   0858
15EE:  MOVFF  01,D9
....................             sifre[56]=c2; 
15F2:  MOVFF  D9,3C
....................          }  
....................          //*******************  baslangic dakikasi *************** 
....................          if(perbas[1]<10) 
15F6:  MOVF   x99,W
15F8:  SUBLW  09
15FA:  BNC   1620
....................          { 
....................             sifre[57]='c'; 
15FC:  MOVLW  63
15FE:  MOVWF  3D
....................             c1=harf(perbas[1]%10); 
1600:  MOVFF  99,F6
1604:  MOVLW  0A
1606:  MOVWF  xF7
1608:  CALL   04F6
160C:  MOVFF  00,F4
1610:  MOVFF  00,F5
1614:  CALL   0858
1618:  MOVFF  01,D8
....................             sifre[58]=c1; 
161C:  MOVFF  D8,3E
....................          } 
....................          if(perbas[1]>=10) 
1620:  MOVF   x99,W
1622:  SUBLW  09
1624:  BC    1676
....................          {   
....................             c1=harf((perbas[1]-(perbas[1]%10))/10); 
1626:  MOVFF  99,F6
162A:  MOVLW  0A
162C:  MOVWF  xF7
162E:  CALL   04F6
1632:  MOVF   00,W
1634:  SUBWF  x99,W
1636:  MOVWF  xF5
1638:  MOVWF  xF6
163A:  MOVLW  0A
163C:  MOVWF  xF7
163E:  CALL   04F6
1642:  MOVFF  01,F4
1646:  MOVFF  01,F5
164A:  CALL   0858
164E:  MOVFF  01,D8
....................             sifre[57]=c1; 
1652:  MOVFF  D8,3D
....................             c2=harf(perbas[1]%10); 
1656:  MOVFF  99,F6
165A:  MOVLW  0A
165C:  MOVWF  xF7
165E:  CALL   04F6
1662:  MOVFF  00,F4
1666:  MOVFF  00,F5
166A:  CALL   0858
166E:  MOVFF  01,D9
....................             sifre[58]=c2; 
1672:  MOVFF  D9,3E
....................          } 
....................          //***************  bitis saati  ************************** 
....................           
....................          if(perbit[0]<10) 
1676:  MOVF   x9A,W
1678:  SUBLW  09
167A:  BNC   16A0
....................          { 
....................             sifre[59]='c'; 
167C:  MOVLW  63
167E:  MOVWF  3F
....................             c1=harf(perbit[0]%10); 
1680:  MOVFF  9A,F6
1684:  MOVLW  0A
1686:  MOVWF  xF7
1688:  CALL   04F6
168C:  MOVFF  00,F4
1690:  MOVFF  00,F5
1694:  CALL   0858
1698:  MOVFF  01,D8
....................             sifre[60]=c1; 
169C:  MOVFF  D8,40
....................          } 
....................          if(perbit[0]>=10) 
16A0:  MOVF   x9A,W
16A2:  SUBLW  09
16A4:  BC    16F6
....................          { 
....................             c1=harf((perbit[0]-(perbit[0]%10))/10); 
16A6:  MOVFF  9A,F6
16AA:  MOVLW  0A
16AC:  MOVWF  xF7
16AE:  CALL   04F6
16B2:  MOVF   00,W
16B4:  SUBWF  x9A,W
16B6:  MOVWF  xF5
16B8:  MOVWF  xF6
16BA:  MOVLW  0A
16BC:  MOVWF  xF7
16BE:  CALL   04F6
16C2:  MOVFF  01,F4
16C6:  MOVFF  01,F5
16CA:  CALL   0858
16CE:  MOVFF  01,D8
....................             sifre[59]=c1; 
16D2:  MOVFF  D8,3F
....................             c2=harf(perbit[0]%10); 
16D6:  MOVFF  9A,F6
16DA:  MOVLW  0A
16DC:  MOVWF  xF7
16DE:  CALL   04F6
16E2:  MOVFF  00,F4
16E6:  MOVFF  00,F5
16EA:  CALL   0858
16EE:  MOVFF  01,D9
....................             sifre[60]=c2; 
16F2:  MOVFF  D9,40
....................          }  
....................           
....................          //*******************  bitis dakikasi   *************** 
....................          if(perbit[1]<10) 
16F6:  MOVF   x9B,W
16F8:  SUBLW  09
16FA:  BNC   1720
....................          { 
....................             sifre[61]='c'; 
16FC:  MOVLW  63
16FE:  MOVWF  41
....................             c1=harf(perbit[1]%10); 
1700:  MOVFF  9B,F6
1704:  MOVLW  0A
1706:  MOVWF  xF7
1708:  CALL   04F6
170C:  MOVFF  00,F4
1710:  MOVFF  00,F5
1714:  CALL   0858
1718:  MOVFF  01,D8
....................             sifre[62]=c1; 
171C:  MOVFF  D8,42
....................          } 
....................          if(perbit[1]>=10) 
1720:  MOVF   x9B,W
1722:  SUBLW  09
1724:  BC    1776
....................          { 
....................             c1=harf((perbit[1]-(perbit[1]%10))/10); 
1726:  MOVFF  9B,F6
172A:  MOVLW  0A
172C:  MOVWF  xF7
172E:  CALL   04F6
1732:  MOVF   00,W
1734:  SUBWF  x9B,W
1736:  MOVWF  xF5
1738:  MOVWF  xF6
173A:  MOVLW  0A
173C:  MOVWF  xF7
173E:  CALL   04F6
1742:  MOVFF  01,F4
1746:  MOVFF  01,F5
174A:  CALL   0858
174E:  MOVFF  01,D8
....................             sifre[61]=c1; 
1752:  MOVFF  D8,41
....................             c2=harf(perbit[1]%10); 
1756:  MOVFF  9B,F6
175A:  MOVLW  0A
175C:  MOVWF  xF7
175E:  CALL   04F6
1762:  MOVFF  00,F4
1766:  MOVFF  00,F5
176A:  CALL   0858
176E:  MOVFF  01,D9
....................             sifre[62]=c2; 
1772:  MOVFF  D9,42
....................          } 
....................       } 
....................        
....................       if(z==0) //KAPALI 
1776:  MOVF   xE5,F
1778:  BNZ   179A
....................       {   
....................          for(int kap=54;kap<63;kap++) 
177A:  MOVLW  36
177C:  MOVWF  xEC
177E:  MOVF   xEC,W
1780:  SUBLW  3E
1782:  BNC   179A
....................          { 
....................             sifre[kap]='c'; 
1784:  CLRF   03
1786:  MOVF   xEC,W
1788:  ADDLW  04
178A:  MOVWF  FE9
178C:  MOVLW  00
178E:  ADDWFC 03,W
1790:  MOVWF  FEA
1792:  MOVLW  63
1794:  MOVWF  FEF
1796:  INCF   xEC,F
1798:  BRA    177E
....................          } 
....................       } 
....................    }  
....................    if(v==8)  //************************* PERSEMBE 2 ********************************************** 
179A:  MOVF   xE4,W
179C:  SUBLW  08
179E:  BTFSS  FD8.2
17A0:  BRA    19CE
....................    {      
....................       if(z==1) //ACIK 
17A2:  DECFSZ xE5,W
17A4:  BRA    19AA
....................       {   
....................          sifre[63]='d';//ilk basamak acik kodu--yani pazartesi acik 
17A6:  MOVLW  64
17A8:  MOVWF  43
....................          //*******************  baslangic saati  *************** 
....................          if(perbas2[0]<10) 
17AA:  MOVF   xB4,W
17AC:  SUBLW  09
17AE:  BNC   17D4
....................          {  
....................             sifre[64]= 'c'; 
17B0:  MOVLW  63
17B2:  MOVWF  44
....................             c2= harf(perbas2[0]%10); 
17B4:  MOVFF  B4,F6
17B8:  MOVLW  0A
17BA:  MOVWF  xF7
17BC:  CALL   04F6
17C0:  MOVFF  00,F4
17C4:  MOVFF  00,F5
17C8:  CALL   0858
17CC:  MOVFF  01,D9
....................             sifre[65]=c2; 
17D0:  MOVFF  D9,45
....................          } 
....................          if(perbas2[0]>=10) 
17D4:  MOVF   xB4,W
17D6:  SUBLW  09
17D8:  BC    182A
....................          {   
....................             c1= harf((perbas2[0]-(perbas2[0]%10))/10); 
17DA:  MOVFF  B4,F6
17DE:  MOVLW  0A
17E0:  MOVWF  xF7
17E2:  CALL   04F6
17E6:  MOVF   00,W
17E8:  SUBWF  xB4,W
17EA:  MOVWF  xF5
17EC:  MOVWF  xF6
17EE:  MOVLW  0A
17F0:  MOVWF  xF7
17F2:  CALL   04F6
17F6:  MOVFF  01,F4
17FA:  MOVFF  01,F5
17FE:  CALL   0858
1802:  MOVFF  01,D8
....................             sifre[64]=c1; 
1806:  MOVFF  D8,44
....................             c2= harf(perbas2[0]%10); 
180A:  MOVFF  B4,F6
180E:  MOVLW  0A
1810:  MOVWF  xF7
1812:  CALL   04F6
1816:  MOVFF  00,F4
181A:  MOVFF  00,F5
181E:  CALL   0858
1822:  MOVFF  01,D9
....................             sifre[65]=c2; 
1826:  MOVFF  D9,45
....................          }  
....................          //*******************  baslangic dakikasi *************** 
....................          if(perbas2[1]<10) 
182A:  MOVF   xB5,W
182C:  SUBLW  09
182E:  BNC   1854
....................          { 
....................             sifre[66]='c'; 
1830:  MOVLW  63
1832:  MOVWF  46
....................             c1=harf(perbas2[1]%10); 
1834:  MOVFF  B5,F6
1838:  MOVLW  0A
183A:  MOVWF  xF7
183C:  CALL   04F6
1840:  MOVFF  00,F4
1844:  MOVFF  00,F5
1848:  CALL   0858
184C:  MOVFF  01,D8
....................             sifre[67]=c1; 
1850:  MOVFF  D8,47
....................          } 
....................          if(perbas2[1]>=10) 
1854:  MOVF   xB5,W
1856:  SUBLW  09
1858:  BC    18AA
....................          {   
....................             c1=harf((perbas2[1]-(perbas2[1]%10))/10); 
185A:  MOVFF  B5,F6
185E:  MOVLW  0A
1860:  MOVWF  xF7
1862:  CALL   04F6
1866:  MOVF   00,W
1868:  SUBWF  xB5,W
186A:  MOVWF  xF5
186C:  MOVWF  xF6
186E:  MOVLW  0A
1870:  MOVWF  xF7
1872:  CALL   04F6
1876:  MOVFF  01,F4
187A:  MOVFF  01,F5
187E:  CALL   0858
1882:  MOVFF  01,D8
....................             sifre[66]=c1; 
1886:  MOVFF  D8,46
....................             c2=harf(perbas2[1]%10); 
188A:  MOVFF  B5,F6
188E:  MOVLW  0A
1890:  MOVWF  xF7
1892:  CALL   04F6
1896:  MOVFF  00,F4
189A:  MOVFF  00,F5
189E:  CALL   0858
18A2:  MOVFF  01,D9
....................             sifre[67]=c2; 
18A6:  MOVFF  D9,47
....................          } 
....................          //***************  bitis saati  ************************** 
....................           
....................          if(perbit2[0]<10) 
18AA:  MOVF   xB6,W
18AC:  SUBLW  09
18AE:  BNC   18D4
....................          { 
....................             sifre[68]='c'; 
18B0:  MOVLW  63
18B2:  MOVWF  48
....................             c1=harf(perbit2[0]%10); 
18B4:  MOVFF  B6,F6
18B8:  MOVLW  0A
18BA:  MOVWF  xF7
18BC:  CALL   04F6
18C0:  MOVFF  00,F4
18C4:  MOVFF  00,F5
18C8:  CALL   0858
18CC:  MOVFF  01,D8
....................             sifre[69]=c1; 
18D0:  MOVFF  D8,49
....................          } 
....................          if(perbit2[0]>=10) 
18D4:  MOVF   xB6,W
18D6:  SUBLW  09
18D8:  BC    192A
....................          { 
....................             c1=harf((perbit2[0]-(perbit2[0]%10))/10); 
18DA:  MOVFF  B6,F6
18DE:  MOVLW  0A
18E0:  MOVWF  xF7
18E2:  CALL   04F6
18E6:  MOVF   00,W
18E8:  SUBWF  xB6,W
18EA:  MOVWF  xF5
18EC:  MOVWF  xF6
18EE:  MOVLW  0A
18F0:  MOVWF  xF7
18F2:  CALL   04F6
18F6:  MOVFF  01,F4
18FA:  MOVFF  01,F5
18FE:  CALL   0858
1902:  MOVFF  01,D8
....................             sifre[68]=c1; 
1906:  MOVFF  D8,48
....................             c2=harf(perbit2[0]%10); 
190A:  MOVFF  B6,F6
190E:  MOVLW  0A
1910:  MOVWF  xF7
1912:  CALL   04F6
1916:  MOVFF  00,F4
191A:  MOVFF  00,F5
191E:  CALL   0858
1922:  MOVFF  01,D9
....................             sifre[69]=c2; 
1926:  MOVFF  D9,49
....................          }  
....................           
....................          //*******************  bitis dakikasi   *************** 
....................          if(perbit2[1]<10) 
192A:  MOVF   xB7,W
192C:  SUBLW  09
192E:  BNC   1954
....................          { 
....................             sifre[70]='c'; 
1930:  MOVLW  63
1932:  MOVWF  4A
....................             c1=harf(perbit2[1]%10); 
1934:  MOVFF  B7,F6
1938:  MOVLW  0A
193A:  MOVWF  xF7
193C:  CALL   04F6
1940:  MOVFF  00,F4
1944:  MOVFF  00,F5
1948:  CALL   0858
194C:  MOVFF  01,D8
....................             sifre[71]=c1; 
1950:  MOVFF  D8,4B
....................          } 
....................          if(perbit2[1]>=10) 
1954:  MOVF   xB7,W
1956:  SUBLW  09
1958:  BC    19AA
....................          { 
....................             c1=harf((perbit2[1]-(perbit2[1]%10))/10); 
195A:  MOVFF  B7,F6
195E:  MOVLW  0A
1960:  MOVWF  xF7
1962:  CALL   04F6
1966:  MOVF   00,W
1968:  SUBWF  xB7,W
196A:  MOVWF  xF5
196C:  MOVWF  xF6
196E:  MOVLW  0A
1970:  MOVWF  xF7
1972:  CALL   04F6
1976:  MOVFF  01,F4
197A:  MOVFF  01,F5
197E:  CALL   0858
1982:  MOVFF  01,D8
....................             sifre[70]=c1; 
1986:  MOVFF  D8,4A
....................             c2=harf(perbit2[1]%10); 
198A:  MOVFF  B7,F6
198E:  MOVLW  0A
1990:  MOVWF  xF7
1992:  CALL   04F6
1996:  MOVFF  00,F4
199A:  MOVFF  00,F5
199E:  CALL   0858
19A2:  MOVFF  01,D9
....................             sifre[71]=c2; 
19A6:  MOVFF  D9,4B
....................          } 
....................       } 
....................        
....................       if(z==0) //KAPALI 
19AA:  MOVF   xE5,F
19AC:  BNZ   19CE
....................       {   
....................          for(int kap=63;kap<72;kap++) 
19AE:  MOVLW  3F
19B0:  MOVWF  xED
19B2:  MOVF   xED,W
19B4:  SUBLW  47
19B6:  BNC   19CE
....................          { 
....................             sifre[kap]='c'; 
19B8:  CLRF   03
19BA:  MOVF   xED,W
19BC:  ADDLW  04
19BE:  MOVWF  FE9
19C0:  MOVLW  00
19C2:  ADDWFC 03,W
19C4:  MOVWF  FEA
19C6:  MOVLW  63
19C8:  MOVWF  FEF
19CA:  INCF   xED,F
19CC:  BRA    19B2
....................          } 
....................       } 
....................    }   
....................         
....................   if(v==9)  //************************* CUMA 1 ********************************************** 
19CE:  MOVF   xE4,W
19D0:  SUBLW  09
19D2:  BTFSS  FD8.2
19D4:  BRA    1C02
....................    {      
....................       if(z==1) //ACIK 
19D6:  DECFSZ xE5,W
19D8:  BRA    1BDE
....................       {   
....................          sifre[72]='d';//ilk basamak acik kodu--yani pazartesi acik 
19DA:  MOVLW  64
19DC:  MOVWF  4C
....................          //*******************  baslangic saati  *************** 
....................          if(cumabas[0]<10) 
19DE:  MOVF   x9C,W
19E0:  SUBLW  09
19E2:  BNC   1A08
....................          {  
....................             sifre[73]= 'c'; 
19E4:  MOVLW  63
19E6:  MOVWF  4D
....................             c2= harf(cumabas[0]%10); 
19E8:  MOVFF  9C,F6
19EC:  MOVLW  0A
19EE:  MOVWF  xF7
19F0:  CALL   04F6
19F4:  MOVFF  00,F4
19F8:  MOVFF  00,F5
19FC:  CALL   0858
1A00:  MOVFF  01,D9
....................             sifre[74]=c2; 
1A04:  MOVFF  D9,4E
....................          } 
....................          if(cumabas[0]>=10) 
1A08:  MOVF   x9C,W
1A0A:  SUBLW  09
1A0C:  BC    1A5E
....................          {   
....................             c1= harf((cumabas[0]-(cumabas[0]%10))/10); 
1A0E:  MOVFF  9C,F6
1A12:  MOVLW  0A
1A14:  MOVWF  xF7
1A16:  CALL   04F6
1A1A:  MOVF   00,W
1A1C:  SUBWF  x9C,W
1A1E:  MOVWF  xF5
1A20:  MOVWF  xF6
1A22:  MOVLW  0A
1A24:  MOVWF  xF7
1A26:  CALL   04F6
1A2A:  MOVFF  01,F4
1A2E:  MOVFF  01,F5
1A32:  CALL   0858
1A36:  MOVFF  01,D8
....................             sifre[73]=c1; 
1A3A:  MOVFF  D8,4D
....................             c2= harf(cumabas[0]%10); 
1A3E:  MOVFF  9C,F6
1A42:  MOVLW  0A
1A44:  MOVWF  xF7
1A46:  CALL   04F6
1A4A:  MOVFF  00,F4
1A4E:  MOVFF  00,F5
1A52:  CALL   0858
1A56:  MOVFF  01,D9
....................             sifre[74]=c2; 
1A5A:  MOVFF  D9,4E
....................          }  
....................          //*******************  baslangic dakikasi *************** 
....................          if(cumabas[1]<10) 
1A5E:  MOVF   x9D,W
1A60:  SUBLW  09
1A62:  BNC   1A88
....................          { 
....................             sifre[75]='c'; 
1A64:  MOVLW  63
1A66:  MOVWF  4F
....................             c1=harf(cumabas[1]%10); 
1A68:  MOVFF  9D,F6
1A6C:  MOVLW  0A
1A6E:  MOVWF  xF7
1A70:  CALL   04F6
1A74:  MOVFF  00,F4
1A78:  MOVFF  00,F5
1A7C:  CALL   0858
1A80:  MOVFF  01,D8
....................             sifre[76]=c1; 
1A84:  MOVFF  D8,50
....................          } 
....................          if(cumabas[1]>=10) 
1A88:  MOVF   x9D,W
1A8A:  SUBLW  09
1A8C:  BC    1ADE
....................          {   
....................             c1=harf((cumabas[1]-(cumabas[1]%10))/10); 
1A8E:  MOVFF  9D,F6
1A92:  MOVLW  0A
1A94:  MOVWF  xF7
1A96:  CALL   04F6
1A9A:  MOVF   00,W
1A9C:  SUBWF  x9D,W
1A9E:  MOVWF  xF5
1AA0:  MOVWF  xF6
1AA2:  MOVLW  0A
1AA4:  MOVWF  xF7
1AA6:  CALL   04F6
1AAA:  MOVFF  01,F4
1AAE:  MOVFF  01,F5
1AB2:  CALL   0858
1AB6:  MOVFF  01,D8
....................             sifre[75]=c1; 
1ABA:  MOVFF  D8,4F
....................             c2=harf(cumabas[1]%10); 
1ABE:  MOVFF  9D,F6
1AC2:  MOVLW  0A
1AC4:  MOVWF  xF7
1AC6:  CALL   04F6
1ACA:  MOVFF  00,F4
1ACE:  MOVFF  00,F5
1AD2:  CALL   0858
1AD6:  MOVFF  01,D9
....................             sifre[76]=c2; 
1ADA:  MOVFF  D9,50
....................          } 
....................          //***************  bitis saati  ************************** 
....................           
....................          if(cumabit[0]<10) 
1ADE:  MOVF   x9E,W
1AE0:  SUBLW  09
1AE2:  BNC   1B08
....................          { 
....................             sifre[77]='c'; 
1AE4:  MOVLW  63
1AE6:  MOVWF  51
....................             c1=harf(cumabit[0]%10); 
1AE8:  MOVFF  9E,F6
1AEC:  MOVLW  0A
1AEE:  MOVWF  xF7
1AF0:  CALL   04F6
1AF4:  MOVFF  00,F4
1AF8:  MOVFF  00,F5
1AFC:  CALL   0858
1B00:  MOVFF  01,D8
....................             sifre[78]=c1; 
1B04:  MOVFF  D8,52
....................          } 
....................          if(cumabit[0]>=10) 
1B08:  MOVF   x9E,W
1B0A:  SUBLW  09
1B0C:  BC    1B5E
....................          { 
....................             c1=harf((cumabit[0]-(cumabit[0]%10))/10); 
1B0E:  MOVFF  9E,F6
1B12:  MOVLW  0A
1B14:  MOVWF  xF7
1B16:  CALL   04F6
1B1A:  MOVF   00,W
1B1C:  SUBWF  x9E,W
1B1E:  MOVWF  xF5
1B20:  MOVWF  xF6
1B22:  MOVLW  0A
1B24:  MOVWF  xF7
1B26:  CALL   04F6
1B2A:  MOVFF  01,F4
1B2E:  MOVFF  01,F5
1B32:  CALL   0858
1B36:  MOVFF  01,D8
....................             sifre[77]=c1; 
1B3A:  MOVFF  D8,51
....................             c2=harf(cumabit[0]%10); 
1B3E:  MOVFF  9E,F6
1B42:  MOVLW  0A
1B44:  MOVWF  xF7
1B46:  CALL   04F6
1B4A:  MOVFF  00,F4
1B4E:  MOVFF  00,F5
1B52:  CALL   0858
1B56:  MOVFF  01,D9
....................             sifre[78]=c2; 
1B5A:  MOVFF  D9,52
....................          }  
....................           
....................          //*******************  bitis dakikasi   *************** 
....................          if(cumabit[1]<10) 
1B5E:  MOVF   x9F,W
1B60:  SUBLW  09
1B62:  BNC   1B88
....................          { 
....................             sifre[79]='c'; 
1B64:  MOVLW  63
1B66:  MOVWF  53
....................             c1=harf(cumabit[1]%10); 
1B68:  MOVFF  9F,F6
1B6C:  MOVLW  0A
1B6E:  MOVWF  xF7
1B70:  CALL   04F6
1B74:  MOVFF  00,F4
1B78:  MOVFF  00,F5
1B7C:  CALL   0858
1B80:  MOVFF  01,D8
....................             sifre[80]=c1; 
1B84:  MOVFF  D8,54
....................          } 
....................          if(perbit[1]>=10) 
1B88:  MOVF   x9B,W
1B8A:  SUBLW  09
1B8C:  BC    1BDE
....................          { 
....................             c1=harf((cumabit[1]-(cumabit[1]%10))/10); 
1B8E:  MOVFF  9F,F6
1B92:  MOVLW  0A
1B94:  MOVWF  xF7
1B96:  CALL   04F6
1B9A:  MOVF   00,W
1B9C:  SUBWF  x9F,W
1B9E:  MOVWF  xF5
1BA0:  MOVWF  xF6
1BA2:  MOVLW  0A
1BA4:  MOVWF  xF7
1BA6:  CALL   04F6
1BAA:  MOVFF  01,F4
1BAE:  MOVFF  01,F5
1BB2:  CALL   0858
1BB6:  MOVFF  01,D8
....................             sifre[79]=c1; 
1BBA:  MOVFF  D8,53
....................             c2=harf(cumabit[1]%10); 
1BBE:  MOVFF  9F,F6
1BC2:  MOVLW  0A
1BC4:  MOVWF  xF7
1BC6:  CALL   04F6
1BCA:  MOVFF  00,F4
1BCE:  MOVFF  00,F5
1BD2:  CALL   0858
1BD6:  MOVFF  01,D9
....................             sifre[80]=c2; 
1BDA:  MOVFF  D9,54
....................          } 
....................       } 
....................        
....................       if(z==0) //KAPALI 
1BDE:  MOVF   xE5,F
1BE0:  BNZ   1C02
....................       {   
....................          for(int kap=72;kap<81;kap++) 
1BE2:  MOVLW  48
1BE4:  MOVWF  xEE
1BE6:  MOVF   xEE,W
1BE8:  SUBLW  50
1BEA:  BNC   1C02
....................          { 
....................             sifre[kap]='c'; 
1BEC:  CLRF   03
1BEE:  MOVF   xEE,W
1BF0:  ADDLW  04
1BF2:  MOVWF  FE9
1BF4:  MOVLW  00
1BF6:  ADDWFC 03,W
1BF8:  MOVWF  FEA
1BFA:  MOVLW  63
1BFC:  MOVWF  FEF
1BFE:  INCF   xEE,F
1C00:  BRA    1BE6
....................          } 
....................       } 
....................    } 
....................     
....................    if(v==10)  //************************* CUMA 2 ********************************************** 
1C02:  MOVF   xE4,W
1C04:  SUBLW  0A
1C06:  BTFSS  FD8.2
1C08:  BRA    1E36
....................    {      
....................       if(z==1) //ACIK 
1C0A:  DECFSZ xE5,W
1C0C:  BRA    1E12
....................       {   
....................          sifre[81]='d';//ilk basamak acik kodu--yani pazartesi acik 
1C0E:  MOVLW  64
1C10:  MOVWF  55
....................          //*******************  baslangic saati  *************** 
....................          if(cumabas2[0]<10) 
1C12:  MOVF   xB8,W
1C14:  SUBLW  09
1C16:  BNC   1C3C
....................          {  
....................             sifre[82]= 'c'; 
1C18:  MOVLW  63
1C1A:  MOVWF  56
....................             c2= harf(cumabas2[0]%10); 
1C1C:  MOVFF  B8,F6
1C20:  MOVLW  0A
1C22:  MOVWF  xF7
1C24:  CALL   04F6
1C28:  MOVFF  00,F4
1C2C:  MOVFF  00,F5
1C30:  CALL   0858
1C34:  MOVFF  01,D9
....................             sifre[83]=c2; 
1C38:  MOVFF  D9,57
....................          } 
....................          if(cumabas2[0]>=10) 
1C3C:  MOVF   xB8,W
1C3E:  SUBLW  09
1C40:  BC    1C92
....................          {   
....................             c1= harf((cumabas2[0]-(cumabas2[0]%10))/10); 
1C42:  MOVFF  B8,F6
1C46:  MOVLW  0A
1C48:  MOVWF  xF7
1C4A:  CALL   04F6
1C4E:  MOVF   00,W
1C50:  SUBWF  xB8,W
1C52:  MOVWF  xF5
1C54:  MOVWF  xF6
1C56:  MOVLW  0A
1C58:  MOVWF  xF7
1C5A:  CALL   04F6
1C5E:  MOVFF  01,F4
1C62:  MOVFF  01,F5
1C66:  CALL   0858
1C6A:  MOVFF  01,D8
....................             sifre[82]=c1; 
1C6E:  MOVFF  D8,56
....................             c2= harf(cumabas2[0]%10); 
1C72:  MOVFF  B8,F6
1C76:  MOVLW  0A
1C78:  MOVWF  xF7
1C7A:  CALL   04F6
1C7E:  MOVFF  00,F4
1C82:  MOVFF  00,F5
1C86:  CALL   0858
1C8A:  MOVFF  01,D9
....................             sifre[83]=c2; 
1C8E:  MOVFF  D9,57
....................          }  
....................          //*******************  baslangic dakikasi *************** 
....................          if(cumabas2[1]<10) 
1C92:  MOVF   xB9,W
1C94:  SUBLW  09
1C96:  BNC   1CBC
....................          { 
....................             sifre[84]='c'; 
1C98:  MOVLW  63
1C9A:  MOVWF  58
....................             c1=harf(cumabas2[1]%10); 
1C9C:  MOVFF  B9,F6
1CA0:  MOVLW  0A
1CA2:  MOVWF  xF7
1CA4:  CALL   04F6
1CA8:  MOVFF  00,F4
1CAC:  MOVFF  00,F5
1CB0:  CALL   0858
1CB4:  MOVFF  01,D8
....................             sifre[85]=c1; 
1CB8:  MOVFF  D8,59
....................          } 
....................          if(cumabas2[1]>=10) 
1CBC:  MOVF   xB9,W
1CBE:  SUBLW  09
1CC0:  BC    1D12
....................          {   
....................             c1=harf((cumabas2[1]-(cumabas2[1]%10))/10); 
1CC2:  MOVFF  B9,F6
1CC6:  MOVLW  0A
1CC8:  MOVWF  xF7
1CCA:  CALL   04F6
1CCE:  MOVF   00,W
1CD0:  SUBWF  xB9,W
1CD2:  MOVWF  xF5
1CD4:  MOVWF  xF6
1CD6:  MOVLW  0A
1CD8:  MOVWF  xF7
1CDA:  CALL   04F6
1CDE:  MOVFF  01,F4
1CE2:  MOVFF  01,F5
1CE6:  CALL   0858
1CEA:  MOVFF  01,D8
....................             sifre[84]=c1; 
1CEE:  MOVFF  D8,58
....................             c2=harf(cumabas2[1]%10); 
1CF2:  MOVFF  B9,F6
1CF6:  MOVLW  0A
1CF8:  MOVWF  xF7
1CFA:  CALL   04F6
1CFE:  MOVFF  00,F4
1D02:  MOVFF  00,F5
1D06:  CALL   0858
1D0A:  MOVFF  01,D9
....................             sifre[85]=c2; 
1D0E:  MOVFF  D9,59
....................          } 
....................          //***************  bitis saati  ************************** 
....................           
....................          if(cumabit2[0]<10) 
1D12:  MOVF   xBA,W
1D14:  SUBLW  09
1D16:  BNC   1D3C
....................          { 
....................             sifre[86]='c'; 
1D18:  MOVLW  63
1D1A:  MOVWF  5A
....................             c1=harf(cumabit2[0]%10); 
1D1C:  MOVFF  BA,F6
1D20:  MOVLW  0A
1D22:  MOVWF  xF7
1D24:  CALL   04F6
1D28:  MOVFF  00,F4
1D2C:  MOVFF  00,F5
1D30:  CALL   0858
1D34:  MOVFF  01,D8
....................             sifre[87]=c1; 
1D38:  MOVFF  D8,5B
....................          } 
....................          if(cumabit2[0]>=10) 
1D3C:  MOVF   xBA,W
1D3E:  SUBLW  09
1D40:  BC    1D92
....................          { 
....................             c1=harf((cumabit2[0]-(cumabit2[0]%10))/10); 
1D42:  MOVFF  BA,F6
1D46:  MOVLW  0A
1D48:  MOVWF  xF7
1D4A:  CALL   04F6
1D4E:  MOVF   00,W
1D50:  SUBWF  xBA,W
1D52:  MOVWF  xF5
1D54:  MOVWF  xF6
1D56:  MOVLW  0A
1D58:  MOVWF  xF7
1D5A:  CALL   04F6
1D5E:  MOVFF  01,F4
1D62:  MOVFF  01,F5
1D66:  CALL   0858
1D6A:  MOVFF  01,D8
....................             sifre[86]=c1; 
1D6E:  MOVFF  D8,5A
....................             c2=harf(cumabit2[0]%10); 
1D72:  MOVFF  BA,F6
1D76:  MOVLW  0A
1D78:  MOVWF  xF7
1D7A:  CALL   04F6
1D7E:  MOVFF  00,F4
1D82:  MOVFF  00,F5
1D86:  CALL   0858
1D8A:  MOVFF  01,D9
....................             sifre[87]=c2; 
1D8E:  MOVFF  D9,5B
....................          }  
....................           
....................          //*******************  bitis dakikasi   *************** 
....................          if(cumabit2[1]<10) 
1D92:  MOVF   xBB,W
1D94:  SUBLW  09
1D96:  BNC   1DBC
....................          { 
....................             sifre[88]='c'; 
1D98:  MOVLW  63
1D9A:  MOVWF  5C
....................             c1=harf(cumabit2[1]%10); 
1D9C:  MOVFF  BB,F6
1DA0:  MOVLW  0A
1DA2:  MOVWF  xF7
1DA4:  CALL   04F6
1DA8:  MOVFF  00,F4
1DAC:  MOVFF  00,F5
1DB0:  CALL   0858
1DB4:  MOVFF  01,D8
....................             sifre[89]=c1; 
1DB8:  MOVFF  D8,5D
....................          } 
....................          if(cumabit2[1]>=10) 
1DBC:  MOVF   xBB,W
1DBE:  SUBLW  09
1DC0:  BC    1E12
....................          { 
....................             c1=harf((cumabit2[1]-(cumabit2[1]%10))/10); 
1DC2:  MOVFF  BB,F6
1DC6:  MOVLW  0A
1DC8:  MOVWF  xF7
1DCA:  CALL   04F6
1DCE:  MOVF   00,W
1DD0:  SUBWF  xBB,W
1DD2:  MOVWF  xF5
1DD4:  MOVWF  xF6
1DD6:  MOVLW  0A
1DD8:  MOVWF  xF7
1DDA:  CALL   04F6
1DDE:  MOVFF  01,F4
1DE2:  MOVFF  01,F5
1DE6:  CALL   0858
1DEA:  MOVFF  01,D8
....................             sifre[88]=c1; 
1DEE:  MOVFF  D8,5C
....................             c2=harf(cumabit2[1]%10); 
1DF2:  MOVFF  BB,F6
1DF6:  MOVLW  0A
1DF8:  MOVWF  xF7
1DFA:  CALL   04F6
1DFE:  MOVFF  00,F4
1E02:  MOVFF  00,F5
1E06:  CALL   0858
1E0A:  MOVFF  01,D9
....................             sifre[89]=c2; 
1E0E:  MOVFF  D9,5D
....................          } 
....................       } 
....................        
....................       if(z==0) //KAPALI 
1E12:  MOVF   xE5,F
1E14:  BNZ   1E36
....................       {   
....................          for(int kap=81;kap<90;kap++) 
1E16:  MOVLW  51
1E18:  MOVWF  xEF
1E1A:  MOVF   xEF,W
1E1C:  SUBLW  59
1E1E:  BNC   1E36
....................          { 
....................             sifre[kap]='c'; 
1E20:  CLRF   03
1E22:  MOVF   xEF,W
1E24:  ADDLW  04
1E26:  MOVWF  FE9
1E28:  MOVLW  00
1E2A:  ADDWFC 03,W
1E2C:  MOVWF  FEA
1E2E:  MOVLW  63
1E30:  MOVWF  FEF
1E32:  INCF   xEF,F
1E34:  BRA    1E1A
....................          } 
....................       } 
....................    } 
....................     
....................   if(v==11)  //************************* CUMARTESI 1 ********************************************** 
1E36:  MOVF   xE4,W
1E38:  SUBLW  0B
1E3A:  BTFSS  FD8.2
1E3C:  BRA    206A
....................    {      
....................       if(z==1) //ACIK 
1E3E:  DECFSZ xE5,W
1E40:  BRA    2046
....................       {   
....................          sifre[90]='d';//ilk basamak acik kodu--yani pazartesi acik 
1E42:  MOVLW  64
1E44:  MOVWF  5E
....................          //*******************  baslangic saati  *************** 
....................          if(ctesibas[0]<10) 
1E46:  MOVF   xA0,W
1E48:  SUBLW  09
1E4A:  BNC   1E70
....................          {  
....................             sifre[91]= 'c'; 
1E4C:  MOVLW  63
1E4E:  MOVWF  5F
....................             c2= harf(ctesibas[0]%10); 
1E50:  MOVFF  A0,F6
1E54:  MOVLW  0A
1E56:  MOVWF  xF7
1E58:  CALL   04F6
1E5C:  MOVFF  00,F4
1E60:  MOVFF  00,F5
1E64:  CALL   0858
1E68:  MOVFF  01,D9
....................             sifre[92]=c2; 
1E6C:  MOVFF  D9,60
....................          } 
....................          if(ctesibas[0]>=10) 
1E70:  MOVF   xA0,W
1E72:  SUBLW  09
1E74:  BC    1EC6
....................          {   
....................             c1= harf((ctesibas[0]-(ctesibas[0]%10))/10); 
1E76:  MOVFF  A0,F6
1E7A:  MOVLW  0A
1E7C:  MOVWF  xF7
1E7E:  CALL   04F6
1E82:  MOVF   00,W
1E84:  SUBWF  xA0,W
1E86:  MOVWF  xF5
1E88:  MOVWF  xF6
1E8A:  MOVLW  0A
1E8C:  MOVWF  xF7
1E8E:  CALL   04F6
1E92:  MOVFF  01,F4
1E96:  MOVFF  01,F5
1E9A:  CALL   0858
1E9E:  MOVFF  01,D8
....................             sifre[91]=c1; 
1EA2:  MOVFF  D8,5F
....................             c2= harf(ctesibas[0]%10); 
1EA6:  MOVFF  A0,F6
1EAA:  MOVLW  0A
1EAC:  MOVWF  xF7
1EAE:  CALL   04F6
1EB2:  MOVFF  00,F4
1EB6:  MOVFF  00,F5
1EBA:  CALL   0858
1EBE:  MOVFF  01,D9
....................             sifre[92]=c2; 
1EC2:  MOVFF  D9,60
....................          }  
....................          //*******************  baslangic dakikasi *************** 
....................          if(ctesibas[1]<10) 
1EC6:  MOVF   xA1,W
1EC8:  SUBLW  09
1ECA:  BNC   1EF0
....................          { 
....................             sifre[93]='c'; 
1ECC:  MOVLW  63
1ECE:  MOVWF  61
....................             c1=harf(ctesibas[1]%10); 
1ED0:  MOVFF  A1,F6
1ED4:  MOVLW  0A
1ED6:  MOVWF  xF7
1ED8:  CALL   04F6
1EDC:  MOVFF  00,F4
1EE0:  MOVFF  00,F5
1EE4:  CALL   0858
1EE8:  MOVFF  01,D8
....................             sifre[94]=c1; 
1EEC:  MOVFF  D8,62
....................          } 
....................          if(ctesibas[1]>=10) 
1EF0:  MOVF   xA1,W
1EF2:  SUBLW  09
1EF4:  BC    1F46
....................          {   
....................             c1=harf((ctesibas[1]-(ctesibas[1]%10))/10); 
1EF6:  MOVFF  A1,F6
1EFA:  MOVLW  0A
1EFC:  MOVWF  xF7
1EFE:  CALL   04F6
1F02:  MOVF   00,W
1F04:  SUBWF  xA1,W
1F06:  MOVWF  xF5
1F08:  MOVWF  xF6
1F0A:  MOVLW  0A
1F0C:  MOVWF  xF7
1F0E:  CALL   04F6
1F12:  MOVFF  01,F4
1F16:  MOVFF  01,F5
1F1A:  CALL   0858
1F1E:  MOVFF  01,D8
....................             sifre[94]=c1; 
1F22:  MOVFF  D8,62
....................             c2=harf(ctesibas[1]%10); 
1F26:  MOVFF  A1,F6
1F2A:  MOVLW  0A
1F2C:  MOVWF  xF7
1F2E:  CALL   04F6
1F32:  MOVFF  00,F4
1F36:  MOVFF  00,F5
1F3A:  CALL   0858
1F3E:  MOVFF  01,D9
....................             sifre[94]=c2; 
1F42:  MOVFF  D9,62
....................          } 
....................          //***************  bitis saati  ************************** 
....................           
....................          if(ctesibit[0]<10) 
1F46:  MOVF   xA2,W
1F48:  SUBLW  09
1F4A:  BNC   1F70
....................          { 
....................             sifre[95]='c'; 
1F4C:  MOVLW  63
1F4E:  MOVWF  63
....................             c1=harf(ctesibit[0]%10); 
1F50:  MOVFF  A2,F6
1F54:  MOVLW  0A
1F56:  MOVWF  xF7
1F58:  CALL   04F6
1F5C:  MOVFF  00,F4
1F60:  MOVFF  00,F5
1F64:  CALL   0858
1F68:  MOVFF  01,D8
....................             sifre[96]=c1; 
1F6C:  MOVFF  D8,64
....................          } 
....................          if(ctesibit[0]>=10) 
1F70:  MOVF   xA2,W
1F72:  SUBLW  09
1F74:  BC    1FC6
....................          { 
....................             c1=harf((ctesibit[0]-(ctesibit[0]%10))/10); 
1F76:  MOVFF  A2,F6
1F7A:  MOVLW  0A
1F7C:  MOVWF  xF7
1F7E:  CALL   04F6
1F82:  MOVF   00,W
1F84:  SUBWF  xA2,W
1F86:  MOVWF  xF5
1F88:  MOVWF  xF6
1F8A:  MOVLW  0A
1F8C:  MOVWF  xF7
1F8E:  CALL   04F6
1F92:  MOVFF  01,F4
1F96:  MOVFF  01,F5
1F9A:  CALL   0858
1F9E:  MOVFF  01,D8
....................             sifre[95]=c1; 
1FA2:  MOVFF  D8,63
....................             c2=harf(ctesibit[0]%10); 
1FA6:  MOVFF  A2,F6
1FAA:  MOVLW  0A
1FAC:  MOVWF  xF7
1FAE:  CALL   04F6
1FB2:  MOVFF  00,F4
1FB6:  MOVFF  00,F5
1FBA:  CALL   0858
1FBE:  MOVFF  01,D9
....................             sifre[96]=c2; 
1FC2:  MOVFF  D9,64
....................          }  
....................           
....................          //*******************  bitis dakikasi   *************** 
....................          if(ctesibit[1]<10) 
1FC6:  MOVF   xA3,W
1FC8:  SUBLW  09
1FCA:  BNC   1FF0
....................          { 
....................             sifre[97]='c'; 
1FCC:  MOVLW  63
1FCE:  MOVWF  65
....................             c1=harf(ctesibit[1]%10); 
1FD0:  MOVFF  A3,F6
1FD4:  MOVLW  0A
1FD6:  MOVWF  xF7
1FD8:  CALL   04F6
1FDC:  MOVFF  00,F4
1FE0:  MOVFF  00,F5
1FE4:  CALL   0858
1FE8:  MOVFF  01,D8
....................             sifre[98]=c1; 
1FEC:  MOVFF  D8,66
....................          } 
....................          if(ctesibit[1]>=10) 
1FF0:  MOVF   xA3,W
1FF2:  SUBLW  09
1FF4:  BC    2046
....................          { 
....................             c1=harf((ctesibit[1]-(ctesibit[1]%10))/10); 
1FF6:  MOVFF  A3,F6
1FFA:  MOVLW  0A
1FFC:  MOVWF  xF7
1FFE:  CALL   04F6
2002:  MOVF   00,W
2004:  SUBWF  xA3,W
2006:  MOVWF  xF5
2008:  MOVWF  xF6
200A:  MOVLW  0A
200C:  MOVWF  xF7
200E:  CALL   04F6
2012:  MOVFF  01,F4
2016:  MOVFF  01,F5
201A:  CALL   0858
201E:  MOVFF  01,D8
....................             sifre[97]=c1; 
2022:  MOVFF  D8,65
....................             c2=harf(ctesibit[1]%10); 
2026:  MOVFF  A3,F6
202A:  MOVLW  0A
202C:  MOVWF  xF7
202E:  CALL   04F6
2032:  MOVFF  00,F4
2036:  MOVFF  00,F5
203A:  CALL   0858
203E:  MOVFF  01,D9
....................             sifre[98]=c2; 
2042:  MOVFF  D9,66
....................          } 
....................       } 
....................        
....................       if(z==0) //KAPALI 
2046:  MOVF   xE5,F
2048:  BNZ   206A
....................       {   
....................          for(int kap=90;kap<99;kap++) 
204A:  MOVLW  5A
204C:  MOVWF  xF0
204E:  MOVF   xF0,W
2050:  SUBLW  62
2052:  BNC   206A
....................          { 
....................             sifre[kap]='c'; 
2054:  CLRF   03
2056:  MOVF   xF0,W
2058:  ADDLW  04
205A:  MOVWF  FE9
205C:  MOVLW  00
205E:  ADDWFC 03,W
2060:  MOVWF  FEA
2062:  MOVLW  63
2064:  MOVWF  FEF
2066:  INCF   xF0,F
2068:  BRA    204E
....................          } 
....................       } 
....................    }  
....................     
....................     if(v==12)  //************************* CUMARTESI 2 ********************************************** 
206A:  MOVF   xE4,W
206C:  SUBLW  0C
206E:  BTFSS  FD8.2
2070:  BRA    229E
....................    {      
....................       if(z==1) //ACIK 
2072:  DECFSZ xE5,W
2074:  BRA    227A
....................       {   
....................          sifre[99]='d';//ilk basamak acik kodu--yani pazartesi acik 
2076:  MOVLW  64
2078:  MOVWF  67
....................          //*******************  baslangic saati  *************** 
....................          if(ctesibas2[0]<10) 
207A:  MOVF   xBC,W
207C:  SUBLW  09
207E:  BNC   20A4
....................          {  
....................             sifre[100]= 'c'; 
2080:  MOVLW  63
2082:  MOVWF  68
....................             c2= harf(ctesibas2[0]%10); 
2084:  MOVFF  BC,F6
2088:  MOVLW  0A
208A:  MOVWF  xF7
208C:  CALL   04F6
2090:  MOVFF  00,F4
2094:  MOVFF  00,F5
2098:  CALL   0858
209C:  MOVFF  01,D9
....................             sifre[101]=c2; 
20A0:  MOVFF  D9,69
....................          } 
....................          if(ctesibas2[0]>=10) 
20A4:  MOVF   xBC,W
20A6:  SUBLW  09
20A8:  BC    20FA
....................          {   
....................             c1= harf((ctesibas2[0]-(ctesibas2[0]%10))/10); 
20AA:  MOVFF  BC,F6
20AE:  MOVLW  0A
20B0:  MOVWF  xF7
20B2:  CALL   04F6
20B6:  MOVF   00,W
20B8:  SUBWF  xBC,W
20BA:  MOVWF  xF5
20BC:  MOVWF  xF6
20BE:  MOVLW  0A
20C0:  MOVWF  xF7
20C2:  CALL   04F6
20C6:  MOVFF  01,F4
20CA:  MOVFF  01,F5
20CE:  CALL   0858
20D2:  MOVFF  01,D8
....................             sifre[100]=c1; 
20D6:  MOVFF  D8,68
....................             c2= harf(ctesibas2[0]%10); 
20DA:  MOVFF  BC,F6
20DE:  MOVLW  0A
20E0:  MOVWF  xF7
20E2:  CALL   04F6
20E6:  MOVFF  00,F4
20EA:  MOVFF  00,F5
20EE:  CALL   0858
20F2:  MOVFF  01,D9
....................             sifre[101]=c2; 
20F6:  MOVFF  D9,69
....................          }  
....................          //*******************  baslangic dakikasi *************** 
....................          if(ctesibas2[1]<10) 
20FA:  MOVF   xBD,W
20FC:  SUBLW  09
20FE:  BNC   2124
....................          { 
....................             sifre[102]='c'; 
2100:  MOVLW  63
2102:  MOVWF  6A
....................             c1=harf(ctesibas2[1]%10); 
2104:  MOVFF  BD,F6
2108:  MOVLW  0A
210A:  MOVWF  xF7
210C:  CALL   04F6
2110:  MOVFF  00,F4
2114:  MOVFF  00,F5
2118:  CALL   0858
211C:  MOVFF  01,D8
....................             sifre[103]=c1; 
2120:  MOVFF  D8,6B
....................          } 
....................          if(ctesibas2[1]>=10) 
2124:  MOVF   xBD,W
2126:  SUBLW  09
2128:  BC    217A
....................          {   
....................             c1=harf((ctesibas2[1]-(ctesibas2[1]%10))/10); 
212A:  MOVFF  BD,F6
212E:  MOVLW  0A
2130:  MOVWF  xF7
2132:  CALL   04F6
2136:  MOVF   00,W
2138:  SUBWF  xBD,W
213A:  MOVWF  xF5
213C:  MOVWF  xF6
213E:  MOVLW  0A
2140:  MOVWF  xF7
2142:  CALL   04F6
2146:  MOVFF  01,F4
214A:  MOVFF  01,F5
214E:  CALL   0858
2152:  MOVFF  01,D8
....................             sifre[102]=c1; 
2156:  MOVFF  D8,6A
....................             c2=harf(ctesibas2[1]%10); 
215A:  MOVFF  BD,F6
215E:  MOVLW  0A
2160:  MOVWF  xF7
2162:  CALL   04F6
2166:  MOVFF  00,F4
216A:  MOVFF  00,F5
216E:  CALL   0858
2172:  MOVFF  01,D9
....................             sifre[103]=c2; 
2176:  MOVFF  D9,6B
....................          } 
....................          //***************  bitis saati  ************************** 
....................           
....................          if(ctesibit2[0]<10) 
217A:  MOVF   xBE,W
217C:  SUBLW  09
217E:  BNC   21A4
....................          { 
....................             sifre[104]='c'; 
2180:  MOVLW  63
2182:  MOVWF  6C
....................             c1=harf(ctesibit2[0]%10); 
2184:  MOVFF  BE,F6
2188:  MOVLW  0A
218A:  MOVWF  xF7
218C:  CALL   04F6
2190:  MOVFF  00,F4
2194:  MOVFF  00,F5
2198:  CALL   0858
219C:  MOVFF  01,D8
....................             sifre[105]=c1; 
21A0:  MOVFF  D8,6D
....................          } 
....................          if(ctesibit2[0]>=10) 
21A4:  MOVF   xBE,W
21A6:  SUBLW  09
21A8:  BC    21FA
....................          { 
....................             c1=harf((ctesibit2[0]-(ctesibit2[0]%10))/10); 
21AA:  MOVFF  BE,F6
21AE:  MOVLW  0A
21B0:  MOVWF  xF7
21B2:  CALL   04F6
21B6:  MOVF   00,W
21B8:  SUBWF  xBE,W
21BA:  MOVWF  xF5
21BC:  MOVWF  xF6
21BE:  MOVLW  0A
21C0:  MOVWF  xF7
21C2:  CALL   04F6
21C6:  MOVFF  01,F4
21CA:  MOVFF  01,F5
21CE:  CALL   0858
21D2:  MOVFF  01,D8
....................             sifre[104]=c1; 
21D6:  MOVFF  D8,6C
....................             c2=harf(ctesibit2[0]%10); 
21DA:  MOVFF  BE,F6
21DE:  MOVLW  0A
21E0:  MOVWF  xF7
21E2:  CALL   04F6
21E6:  MOVFF  00,F4
21EA:  MOVFF  00,F5
21EE:  CALL   0858
21F2:  MOVFF  01,D9
....................             sifre[105]=c2; 
21F6:  MOVFF  D9,6D
....................          }  
....................           
....................          //*******************  bitis dakikasi   *************** 
....................          if(ctesibit2[1]<10) 
21FA:  MOVF   xBF,W
21FC:  SUBLW  09
21FE:  BNC   2224
....................          { 
....................             sifre[106]='c'; 
2200:  MOVLW  63
2202:  MOVWF  6E
....................             c1=harf(ctesibit2[1]%10); 
2204:  MOVFF  BF,F6
2208:  MOVLW  0A
220A:  MOVWF  xF7
220C:  CALL   04F6
2210:  MOVFF  00,F4
2214:  MOVFF  00,F5
2218:  CALL   0858
221C:  MOVFF  01,D8
....................             sifre[107]=c1; 
2220:  MOVFF  D8,6F
....................          } 
....................          if(ctesibit2[1]>=10) 
2224:  MOVF   xBF,W
2226:  SUBLW  09
2228:  BC    227A
....................          { 
....................             c1=harf((ctesibit2[1]-(ctesibit2[1]%10))/10); 
222A:  MOVFF  BF,F6
222E:  MOVLW  0A
2230:  MOVWF  xF7
2232:  CALL   04F6
2236:  MOVF   00,W
2238:  SUBWF  xBF,W
223A:  MOVWF  xF5
223C:  MOVWF  xF6
223E:  MOVLW  0A
2240:  MOVWF  xF7
2242:  CALL   04F6
2246:  MOVFF  01,F4
224A:  MOVFF  01,F5
224E:  CALL   0858
2252:  MOVFF  01,D8
....................             sifre[106]=c1; 
2256:  MOVFF  D8,6E
....................             c2=harf(ctesibit2[1]%10); 
225A:  MOVFF  BF,F6
225E:  MOVLW  0A
2260:  MOVWF  xF7
2262:  CALL   04F6
2266:  MOVFF  00,F4
226A:  MOVFF  00,F5
226E:  CALL   0858
2272:  MOVFF  01,D9
....................             sifre[107]=c2; 
2276:  MOVFF  D9,6F
....................          }  
....................       } 
....................        
....................       if(z==0) //KAPALI 
227A:  MOVF   xE5,F
227C:  BNZ   229E
....................       {   
....................          for(int kap=99;kap<108;kap++) 
227E:  MOVLW  63
2280:  MOVWF  xF1
2282:  MOVF   xF1,W
2284:  SUBLW  6B
2286:  BNC   229E
....................          { 
....................             sifre[kap]='c'; 
2288:  CLRF   03
228A:  MOVF   xF1,W
228C:  ADDLW  04
228E:  MOVWF  FE9
2290:  MOVLW  00
2292:  ADDWFC 03,W
2294:  MOVWF  FEA
2296:  MOVLW  63
2298:  MOVWF  FEF
229A:  INCF   xF1,F
229C:  BRA    2282
....................          } 
....................       } 
....................    }  
....................     
....................     
....................    if(v==13)  //************************* PAZAR 1 ********************************************** 
229E:  MOVF   xE4,W
22A0:  SUBLW  0D
22A2:  BTFSS  FD8.2
22A4:  BRA    24D2
....................    {      
....................       if(z==1) //ACIK 
22A6:  DECFSZ xE5,W
22A8:  BRA    24AE
....................       {   
....................          sifre[108]='d';//ilk basamak acik kodu--yani pazartesi acik 
22AA:  MOVLW  64
22AC:  MOVWF  70
....................          //*******************  baslangic saati  *************** 
....................          if(pazarbas[0]<10) 
22AE:  MOVF   xA4,W
22B0:  SUBLW  09
22B2:  BNC   22D8
....................          {  
....................             sifre[109]= 'c'; 
22B4:  MOVLW  63
22B6:  MOVWF  71
....................             c2= harf(pazarbas[0]%10); 
22B8:  MOVFF  A4,F6
22BC:  MOVLW  0A
22BE:  MOVWF  xF7
22C0:  CALL   04F6
22C4:  MOVFF  00,F4
22C8:  MOVFF  00,F5
22CC:  CALL   0858
22D0:  MOVFF  01,D9
....................             sifre[110]=c2; 
22D4:  MOVFF  D9,72
....................          } 
....................          if(pazarbas[0]>=10) 
22D8:  MOVF   xA4,W
22DA:  SUBLW  09
22DC:  BC    232E
....................          {   
....................             c1= harf((pazarbas[0]-(pazarbas[0]%10))/10); 
22DE:  MOVFF  A4,F6
22E2:  MOVLW  0A
22E4:  MOVWF  xF7
22E6:  CALL   04F6
22EA:  MOVF   00,W
22EC:  SUBWF  xA4,W
22EE:  MOVWF  xF5
22F0:  MOVWF  xF6
22F2:  MOVLW  0A
22F4:  MOVWF  xF7
22F6:  CALL   04F6
22FA:  MOVFF  01,F4
22FE:  MOVFF  01,F5
2302:  CALL   0858
2306:  MOVFF  01,D8
....................             sifre[109]=c1; 
230A:  MOVFF  D8,71
....................             c2= harf(pazarbas[0]%10); 
230E:  MOVFF  A4,F6
2312:  MOVLW  0A
2314:  MOVWF  xF7
2316:  CALL   04F6
231A:  MOVFF  00,F4
231E:  MOVFF  00,F5
2322:  CALL   0858
2326:  MOVFF  01,D9
....................             sifre[110]=c2; 
232A:  MOVFF  D9,72
....................          }  
....................          //*******************  baslangic dakikasi *************** 
....................          if(pazarbas[1]<10) 
232E:  MOVF   xA5,W
2330:  SUBLW  09
2332:  BNC   2358
....................          { 
....................             sifre[111]='c'; 
2334:  MOVLW  63
2336:  MOVWF  73
....................             c1=harf(pazarbas[1]%10); 
2338:  MOVFF  A5,F6
233C:  MOVLW  0A
233E:  MOVWF  xF7
2340:  CALL   04F6
2344:  MOVFF  00,F4
2348:  MOVFF  00,F5
234C:  CALL   0858
2350:  MOVFF  01,D8
....................             sifre[112]=c1; 
2354:  MOVFF  D8,74
....................          } 
....................          if(pazarbas[1]>=10) 
2358:  MOVF   xA5,W
235A:  SUBLW  09
235C:  BC    23AE
....................          {   
....................             c1=harf((pazarbas[1]-(pazarbas[1]%10))/10); 
235E:  MOVFF  A5,F6
2362:  MOVLW  0A
2364:  MOVWF  xF7
2366:  CALL   04F6
236A:  MOVF   00,W
236C:  SUBWF  xA5,W
236E:  MOVWF  xF5
2370:  MOVWF  xF6
2372:  MOVLW  0A
2374:  MOVWF  xF7
2376:  CALL   04F6
237A:  MOVFF  01,F4
237E:  MOVFF  01,F5
2382:  CALL   0858
2386:  MOVFF  01,D8
....................             sifre[111]=c1; 
238A:  MOVFF  D8,73
....................             c2=harf(pazarbas[1]%10); 
238E:  MOVFF  A5,F6
2392:  MOVLW  0A
2394:  MOVWF  xF7
2396:  CALL   04F6
239A:  MOVFF  00,F4
239E:  MOVFF  00,F5
23A2:  CALL   0858
23A6:  MOVFF  01,D9
....................             sifre[112]=c2; 
23AA:  MOVFF  D9,74
....................          } 
....................          //***************  bitis saati  ************************** 
....................           
....................          if(pazarbit[0]<10) 
23AE:  MOVF   xA6,W
23B0:  SUBLW  09
23B2:  BNC   23D8
....................          { 
....................             sifre[113]='c'; 
23B4:  MOVLW  63
23B6:  MOVWF  75
....................             c1=harf(pazarbit[0]%10); 
23B8:  MOVFF  A6,F6
23BC:  MOVLW  0A
23BE:  MOVWF  xF7
23C0:  CALL   04F6
23C4:  MOVFF  00,F4
23C8:  MOVFF  00,F5
23CC:  CALL   0858
23D0:  MOVFF  01,D8
....................             sifre[114]=c1; 
23D4:  MOVFF  D8,76
....................          } 
....................          if(pazarbit[0]>=10) 
23D8:  MOVF   xA6,W
23DA:  SUBLW  09
23DC:  BC    242E
....................          { 
....................             c1=harf((pazarbit[0]-(pazarbit[0]%10))/10); 
23DE:  MOVFF  A6,F6
23E2:  MOVLW  0A
23E4:  MOVWF  xF7
23E6:  CALL   04F6
23EA:  MOVF   00,W
23EC:  SUBWF  xA6,W
23EE:  MOVWF  xF5
23F0:  MOVWF  xF6
23F2:  MOVLW  0A
23F4:  MOVWF  xF7
23F6:  CALL   04F6
23FA:  MOVFF  01,F4
23FE:  MOVFF  01,F5
2402:  CALL   0858
2406:  MOVFF  01,D8
....................             sifre[113]=c1; 
240A:  MOVFF  D8,75
....................             c2=harf(pazarbit[0]%10); 
240E:  MOVFF  A6,F6
2412:  MOVLW  0A
2414:  MOVWF  xF7
2416:  CALL   04F6
241A:  MOVFF  00,F4
241E:  MOVFF  00,F5
2422:  CALL   0858
2426:  MOVFF  01,D9
....................             sifre[114]=c2; 
242A:  MOVFF  D9,76
....................          }  
....................           
....................          //*******************  bitis dakikasi   *************** 
....................          if(pazarbit[1]<10) 
242E:  MOVF   xA7,W
2430:  SUBLW  09
2432:  BNC   2458
....................          { 
....................             sifre[115]='c'; 
2434:  MOVLW  63
2436:  MOVWF  77
....................             c1=harf(pazarbit[1]%10); 
2438:  MOVFF  A7,F6
243C:  MOVLW  0A
243E:  MOVWF  xF7
2440:  CALL   04F6
2444:  MOVFF  00,F4
2448:  MOVFF  00,F5
244C:  CALL   0858
2450:  MOVFF  01,D8
....................             sifre[116]=c1; 
2454:  MOVFF  D8,78
....................          } 
....................          if(pazarbit[1]>=10) 
2458:  MOVF   xA7,W
245A:  SUBLW  09
245C:  BC    24AE
....................          { 
....................             c1=harf((pazarbit[1]-(pazarbit[1]%10))/10); 
245E:  MOVFF  A7,F6
2462:  MOVLW  0A
2464:  MOVWF  xF7
2466:  CALL   04F6
246A:  MOVF   00,W
246C:  SUBWF  xA7,W
246E:  MOVWF  xF5
2470:  MOVWF  xF6
2472:  MOVLW  0A
2474:  MOVWF  xF7
2476:  CALL   04F6
247A:  MOVFF  01,F4
247E:  MOVFF  01,F5
2482:  CALL   0858
2486:  MOVFF  01,D8
....................             sifre[115]=c1; 
248A:  MOVFF  D8,77
....................             c2=harf(pazarbit[1]%10); 
248E:  MOVFF  A7,F6
2492:  MOVLW  0A
2494:  MOVWF  xF7
2496:  CALL   04F6
249A:  MOVFF  00,F4
249E:  MOVFF  00,F5
24A2:  CALL   0858
24A6:  MOVFF  01,D9
....................             sifre[116]=c2; 
24AA:  MOVFF  D9,78
....................          } 
....................       } 
....................        
....................       if(z==0) //KAPALI 
24AE:  MOVF   xE5,F
24B0:  BNZ   24D2
....................       {   
....................          for(int kap=108;kap<117;kap++) 
24B2:  MOVLW  6C
24B4:  MOVWF  xF2
24B6:  MOVF   xF2,W
24B8:  SUBLW  74
24BA:  BNC   24D2
....................          { 
....................             sifre[kap]='c'; 
24BC:  CLRF   03
24BE:  MOVF   xF2,W
24C0:  ADDLW  04
24C2:  MOVWF  FE9
24C4:  MOVLW  00
24C6:  ADDWFC 03,W
24C8:  MOVWF  FEA
24CA:  MOVLW  63
24CC:  MOVWF  FEF
24CE:  INCF   xF2,F
24D0:  BRA    24B6
....................          } 
....................       } 
....................    } 
....................     
....................     
....................    if(v==14)  //************************* PAZAR 2 ********************************************** 
24D2:  MOVF   xE4,W
24D4:  SUBLW  0E
24D6:  BTFSS  FD8.2
24D8:  BRA    2706
....................    {      
....................       if(z==1) //ACIK 
24DA:  DECFSZ xE5,W
24DC:  BRA    26E2
....................       {   
....................          sifre[117]='d';//ilk basamak acik kodu--yani pazartesi acik 
24DE:  MOVLW  64
24E0:  MOVWF  79
....................          //*******************  baslangic saati  *************** 
....................          if(pazarbas2[0]<10) 
24E2:  MOVF   xC0,W
24E4:  SUBLW  09
24E6:  BNC   250C
....................          {  
....................             sifre[118]= 'c'; 
24E8:  MOVLW  63
24EA:  MOVWF  7A
....................             c2= harf(pazarbas2[0]%10); 
24EC:  MOVFF  C0,F6
24F0:  MOVLW  0A
24F2:  MOVWF  xF7
24F4:  CALL   04F6
24F8:  MOVFF  00,F4
24FC:  MOVFF  00,F5
2500:  CALL   0858
2504:  MOVFF  01,D9
....................             sifre[119]=c2; 
2508:  MOVFF  D9,7B
....................          } 
....................          if(pazarbas2[0]>=10) 
250C:  MOVF   xC0,W
250E:  SUBLW  09
2510:  BC    2562
....................          {   
....................             c1= harf((pazarbas2[0]-(pazarbas2[0]%10))/10); 
2512:  MOVFF  C0,F6
2516:  MOVLW  0A
2518:  MOVWF  xF7
251A:  CALL   04F6
251E:  MOVF   00,W
2520:  SUBWF  xC0,W
2522:  MOVWF  xF5
2524:  MOVWF  xF6
2526:  MOVLW  0A
2528:  MOVWF  xF7
252A:  CALL   04F6
252E:  MOVFF  01,F4
2532:  MOVFF  01,F5
2536:  CALL   0858
253A:  MOVFF  01,D8
....................             sifre[118]=c1; 
253E:  MOVFF  D8,7A
....................             c2= harf(pazarbas2[0]%10); 
2542:  MOVFF  C0,F6
2546:  MOVLW  0A
2548:  MOVWF  xF7
254A:  CALL   04F6
254E:  MOVFF  00,F4
2552:  MOVFF  00,F5
2556:  CALL   0858
255A:  MOVFF  01,D9
....................             sifre[119]=c2; 
255E:  MOVFF  D9,7B
....................          }  
....................          //*******************  baslangic dakikasi *************** 
....................          if(pazarbas2[1]<10) 
2562:  MOVF   xC1,W
2564:  SUBLW  09
2566:  BNC   258C
....................          { 
....................             sifre[120]='c'; 
2568:  MOVLW  63
256A:  MOVWF  7C
....................             c1=harf(pazarbas2[1]%10); 
256C:  MOVFF  C1,F6
2570:  MOVLW  0A
2572:  MOVWF  xF7
2574:  CALL   04F6
2578:  MOVFF  00,F4
257C:  MOVFF  00,F5
2580:  CALL   0858
2584:  MOVFF  01,D8
....................             sifre[121]=c1; 
2588:  MOVFF  D8,7D
....................          } 
....................          if(pazarbas2[1]>=10) 
258C:  MOVF   xC1,W
258E:  SUBLW  09
2590:  BC    25E2
....................          {   
....................             c1=harf((pazarbas2[1]-(pazarbas2[1]%10))/10); 
2592:  MOVFF  C1,F6
2596:  MOVLW  0A
2598:  MOVWF  xF7
259A:  CALL   04F6
259E:  MOVF   00,W
25A0:  SUBWF  xC1,W
25A2:  MOVWF  xF5
25A4:  MOVWF  xF6
25A6:  MOVLW  0A
25A8:  MOVWF  xF7
25AA:  CALL   04F6
25AE:  MOVFF  01,F4
25B2:  MOVFF  01,F5
25B6:  CALL   0858
25BA:  MOVFF  01,D8
....................             sifre[120]=c1; 
25BE:  MOVFF  D8,7C
....................             c2=harf(pazarbas2[1]%10); 
25C2:  MOVFF  C1,F6
25C6:  MOVLW  0A
25C8:  MOVWF  xF7
25CA:  CALL   04F6
25CE:  MOVFF  00,F4
25D2:  MOVFF  00,F5
25D6:  CALL   0858
25DA:  MOVFF  01,D9
....................             sifre[121]=c2; 
25DE:  MOVFF  D9,7D
....................          } 
....................          //***************  bitis saati  ************************** 
....................           
....................          if(pazarbit2[0]<10) 
25E2:  MOVF   xC2,W
25E4:  SUBLW  09
25E6:  BNC   260C
....................          { 
....................             sifre[122]='c'; 
25E8:  MOVLW  63
25EA:  MOVWF  7E
....................             c1=harf(pazarbit2[0]%10); 
25EC:  MOVFF  C2,F6
25F0:  MOVLW  0A
25F2:  MOVWF  xF7
25F4:  CALL   04F6
25F8:  MOVFF  00,F4
25FC:  MOVFF  00,F5
2600:  CALL   0858
2604:  MOVFF  01,D8
....................             sifre[123]=c1; 
2608:  MOVFF  D8,7F
....................          } 
....................          if(pazarbit2[0]>=10) 
260C:  MOVF   xC2,W
260E:  SUBLW  09
2610:  BC    2662
....................          { 
....................             c1=harf((pazarbit2[0]-(pazarbit2[0]%10))/10); 
2612:  MOVFF  C2,F6
2616:  MOVLW  0A
2618:  MOVWF  xF7
261A:  CALL   04F6
261E:  MOVF   00,W
2620:  SUBWF  xC2,W
2622:  MOVWF  xF5
2624:  MOVWF  xF6
2626:  MOVLW  0A
2628:  MOVWF  xF7
262A:  CALL   04F6
262E:  MOVFF  01,F4
2632:  MOVFF  01,F5
2636:  CALL   0858
263A:  MOVFF  01,D8
....................             sifre[122]=c1; 
263E:  MOVFF  D8,7E
....................             c2=harf(pazarbit2[0]%10); 
2642:  MOVFF  C2,F6
2646:  MOVLW  0A
2648:  MOVWF  xF7
264A:  CALL   04F6
264E:  MOVFF  00,F4
2652:  MOVFF  00,F5
2656:  CALL   0858
265A:  MOVFF  01,D9
....................             sifre[123]=c2; 
265E:  MOVFF  D9,7F
....................          }  
....................           
....................          //*******************  bitis dakikasi   *************** 
....................          if(pazarbit2[1]<10) 
2662:  MOVF   xC3,W
2664:  SUBLW  09
2666:  BNC   268C
....................          { 
....................             sifre[124]='c'; 
2668:  MOVLW  63
266A:  MOVWF  x80
....................             c1=harf(pazarbit2[1]%10); 
266C:  MOVFF  C3,F6
2670:  MOVLW  0A
2672:  MOVWF  xF7
2674:  CALL   04F6
2678:  MOVFF  00,F4
267C:  MOVFF  00,F5
2680:  CALL   0858
2684:  MOVFF  01,D8
....................             sifre[125]=c1; 
2688:  MOVFF  D8,81
....................          } 
....................          if(pazarbit2[1]>=10) 
268C:  MOVF   xC3,W
268E:  SUBLW  09
2690:  BC    26E2
....................          { 
....................             c1=harf((pazarbit2[1]-(pazarbit2[1]%10))/10); 
2692:  MOVFF  C3,F6
2696:  MOVLW  0A
2698:  MOVWF  xF7
269A:  CALL   04F6
269E:  MOVF   00,W
26A0:  SUBWF  xC3,W
26A2:  MOVWF  xF5
26A4:  MOVWF  xF6
26A6:  MOVLW  0A
26A8:  MOVWF  xF7
26AA:  CALL   04F6
26AE:  MOVFF  01,F4
26B2:  MOVFF  01,F5
26B6:  CALL   0858
26BA:  MOVFF  01,D8
....................             sifre[124]=c1; 
26BE:  MOVFF  D8,80
....................             c2=harf(pazarbit2[1]%10); 
26C2:  MOVFF  C3,F6
26C6:  MOVLW  0A
26C8:  MOVWF  xF7
26CA:  CALL   04F6
26CE:  MOVFF  00,F4
26D2:  MOVFF  00,F5
26D6:  CALL   0858
26DA:  MOVFF  01,D9
....................             sifre[125]=c2; 
26DE:  MOVFF  D9,81
....................          }  
....................       } 
....................        
....................       if(z==0) //KAPALI 
26E2:  MOVF   xE5,F
26E4:  BNZ   2706
....................       {   
....................          for(int kap=117;kap<126;kap++) 
26E6:  MOVLW  75
26E8:  MOVWF  xF3
26EA:  MOVF   xF3,W
26EC:  SUBLW  7D
26EE:  BNC   2706
....................          { 
....................             sifre[kap]='c'; 
26F0:  CLRF   03
26F2:  MOVF   xF3,W
26F4:  ADDLW  04
26F6:  MOVWF  FE9
26F8:  MOVLW  00
26FA:  ADDWFC 03,W
26FC:  MOVWF  FEA
26FE:  MOVLW  63
2700:  MOVWF  FEF
2702:  INCF   xF3,F
2704:  BRA    26EA
....................          } 
....................       } 
....................    } 
....................     
....................    if(v==15)  //************************* BUGUN ICIN GUN VE SAAT ********************************************** 
2706:  MOVF   xE4,W
2708:  SUBLW  0F
270A:  BTFSS  FD8.2
270C:  BRA    2812
....................    {      
....................       if(z==1) //ACIK 
270E:  DECFSZ xE5,W
2710:  BRA    2812
....................       {   
....................          if(bugun[0]<10) 
2712:  MOVF   x8A,W
2714:  SUBLW  09
2716:  BNC   273C
....................          {  
....................             sifre[127]='c'; 
2718:  MOVLW  63
271A:  MOVWF  x83
....................             c2= harf(bugun[0]%10); 
271C:  MOVFF  8A,F6
2720:  MOVLW  0A
2722:  MOVWF  xF7
2724:  CALL   04F6
2728:  MOVFF  00,F4
272C:  MOVFF  00,F5
2730:  CALL   0858
2734:  MOVFF  01,D9
....................             sifre[128]=c2; 
2738:  MOVFF  D9,84
....................          } 
....................          if(bugun[0]>=10) 
273C:  MOVF   x8A,W
273E:  SUBLW  09
2740:  BC    2792
....................          {   
....................             c1= harf((bugun[0]-(bugun[0]%10))/10); 
2742:  MOVFF  8A,F6
2746:  MOVLW  0A
2748:  MOVWF  xF7
274A:  CALL   04F6
274E:  MOVF   00,W
2750:  SUBWF  x8A,W
2752:  MOVWF  xF5
2754:  MOVWF  xF6
2756:  MOVLW  0A
2758:  MOVWF  xF7
275A:  CALL   04F6
275E:  MOVFF  01,F4
2762:  MOVFF  01,F5
2766:  CALL   0858
276A:  MOVFF  01,D8
....................             sifre[127]=c1; 
276E:  MOVFF  D8,83
....................             c2= harf(bugun[0]%10); 
2772:  MOVFF  8A,F6
2776:  MOVLW  0A
2778:  MOVWF  xF7
277A:  CALL   04F6
277E:  MOVFF  00,F4
2782:  MOVFF  00,F5
2786:  CALL   0858
278A:  MOVFF  01,D9
....................             sifre[128]=c2; 
278E:  MOVFF  D9,84
....................          }  
....................          //*******************   dakika *************** 
....................          if(bugun[1]<10) 
2792:  MOVF   x8B,W
2794:  SUBLW  09
2796:  BNC   27BC
....................          { 
....................             sifre[129]='c'; 
2798:  MOVLW  63
279A:  MOVWF  x85
....................             c1=harf(bugun[1]%10); 
279C:  MOVFF  8B,F6
27A0:  MOVLW  0A
27A2:  MOVWF  xF7
27A4:  CALL   04F6
27A8:  MOVFF  00,F4
27AC:  MOVFF  00,F5
27B0:  CALL   0858
27B4:  MOVFF  01,D8
....................             sifre[130]=c1; 
27B8:  MOVFF  D8,86
....................          } 
....................          if(bugun[1]>=10) 
27BC:  MOVF   x8B,W
27BE:  SUBLW  09
27C0:  BC    2812
....................          {   
....................             c1=harf((bugun[1]-(bugun[1]%10))/10); 
27C2:  MOVFF  8B,F6
27C6:  MOVLW  0A
27C8:  MOVWF  xF7
27CA:  CALL   04F6
27CE:  MOVF   00,W
27D0:  SUBWF  x8B,W
27D2:  MOVWF  xF5
27D4:  MOVWF  xF6
27D6:  MOVLW  0A
27D8:  MOVWF  xF7
27DA:  CALL   04F6
27DE:  MOVFF  01,F4
27E2:  MOVFF  01,F5
27E6:  CALL   0858
27EA:  MOVFF  01,D8
....................             sifre[129]=c1; 
27EE:  MOVFF  D8,85
....................             c2=harf(bugun[1]%10); 
27F2:  MOVFF  8B,F6
27F6:  MOVLW  0A
27F8:  MOVWF  xF7
27FA:  CALL   04F6
27FE:  MOVFF  00,F4
2802:  MOVFF  00,F5
2806:  CALL   0858
280A:  MOVFF  01,D9
....................             sifre[130]=c2; 
280E:  MOVFF  D9,86
....................          } 
....................       } 
....................    } 
2812:  RETURN 0
....................     
.................... }//sifreleme fon bitis 
....................  
....................  
....................  
.................... void gun(int k) 
.................... {         
....................    while(k==0) 
*
357A:  MOVF   xE1,F
357C:  BTFSS  FD8.2
357E:  BRA    3718
....................    { 
....................       printf(lcd_putc,"\f"); 
3580:  MOVLW  0C
3582:  MOVWF  xEB
3584:  CALL   0486
....................       lcd_gotoxy(7,1);//LCD belirtilen satýr ve sütuna git komutu 
3588:  MOVLW  07
358A:  MOVWF  xEC
358C:  MOVLW  01
358E:  MOVWF  xED
3590:  CALL   0464
....................       printf(lcd_putc,"BUGUN"); 
3594:  MOVLW  60
3596:  MOVWF  FF6
3598:  MOVLW  02
359A:  MOVWF  FF7
359C:  CALL   04D6
....................       delay_ms(100);   
35A0:  MOVLW  64
35A2:  MOVWF  xEC
35A4:  CALL   02A0
....................          
....................       if(input(pin_b3)==0)//                    GUNLERI YUKARI SAY BUTONU 
35A8:  BTFSC  F81.3
35AA:  BRA    35C4
....................       {   
....................          delay_ms(20); 
35AC:  MOVLW  14
35AE:  MOVWF  xEC
35B0:  CALL   02A0
....................          while(input(pin_b3)==0); 
35B4:  BTFSS  F81.3
35B6:  BRA    35B4
....................          t++; 
35B8:  INCF   xDC,F
....................          if(t==8) 
35BA:  MOVF   xDC,W
35BC:  SUBLW  08
35BE:  BNZ   35C4
....................          {t=1;} 
35C0:  MOVLW  01
35C2:  MOVWF  xDC
....................       } 
....................       if(input(pin_b4)==0)//                    GUNLERI ASAGI SAY BUTONU 
35C4:  BTFSC  F81.4
35C6:  BRA    35DE
....................       { 
....................          delay_ms(20); 
35C8:  MOVLW  14
35CA:  MOVWF  xEC
35CC:  CALL   02A0
....................          while(input(pin_b4)==0); 
35D0:  BTFSS  F81.4
35D2:  BRA    35D0
....................          t--; 
35D4:  DECF   xDC,F
....................          if(t==0) 
35D6:  MOVF   xDC,F
35D8:  BNZ   35DE
....................          {t=7;} 
35DA:  MOVLW  07
35DC:  MOVWF  xDC
....................       } 
....................  
....................       if(t==1) 
35DE:  DECFSZ xDC,W
35E0:  BRA    3604
....................       { 
....................          lcd_gotoxy(4,2);//LCD belirtilen satýr ve sütuna git komutu 
35E2:  MOVLW  04
35E4:  MOVWF  xEC
35E6:  MOVLW  02
35E8:  MOVWF  xED
35EA:  CALL   0464
....................          printf(lcd_putc,"PAZARTESI"); 
35EE:  MOVLW  66
35F0:  MOVWF  FF6
35F2:  MOVLW  02
35F4:  MOVWF  FF7
35F6:  CALL   04D6
....................          delay_ms(200); 
35FA:  MOVLW  C8
35FC:  MOVWF  xEC
35FE:  CALL   02A0
....................       } 
3602:  BRA    36F2
....................       else if(t==2) 
3604:  MOVF   xDC,W
3606:  SUBLW  02
3608:  BNZ   362C
....................       { 
....................          lcd_gotoxy(4,2);//LCD belirtilen satýr ve sütuna git komutu 
360A:  MOVLW  04
360C:  MOVWF  xEC
360E:  MOVLW  02
3610:  MOVWF  xED
3612:  CALL   0464
....................          printf(lcd_putc,"SALI"); 
3616:  MOVLW  70
3618:  MOVWF  FF6
361A:  MOVLW  02
361C:  MOVWF  FF7
361E:  CALL   04D6
....................          delay_ms(100); 
3622:  MOVLW  64
3624:  MOVWF  xEC
3626:  CALL   02A0
....................       } 
362A:  BRA    36F2
....................       else if(t==3) 
362C:  MOVF   xDC,W
362E:  SUBLW  03
3630:  BNZ   3654
....................       { 
....................          lcd_gotoxy(4,2);//LCD belirtilen satýr ve sütuna git komutu 
3632:  MOVLW  04
3634:  MOVWF  xEC
3636:  MOVLW  02
3638:  MOVWF  xED
363A:  CALL   0464
....................          printf(lcd_putc,"CARSAMBA"); 
363E:  MOVLW  76
3640:  MOVWF  FF6
3642:  MOVLW  02
3644:  MOVWF  FF7
3646:  CALL   04D6
....................          delay_ms(100); 
364A:  MOVLW  64
364C:  MOVWF  xEC
364E:  CALL   02A0
....................       } 
3652:  BRA    36F2
....................       else if(t==4) 
3654:  MOVF   xDC,W
3656:  SUBLW  04
3658:  BNZ   367C
....................       { 
....................          lcd_gotoxy(4,2);//LCD belirtilen satýr ve sütuna git komutu 
365A:  MOVLW  04
365C:  MOVWF  xEC
365E:  MOVLW  02
3660:  MOVWF  xED
3662:  CALL   0464
....................          printf(lcd_putc,"PERSEMBE"); 
3666:  MOVLW  80
3668:  MOVWF  FF6
366A:  MOVLW  02
366C:  MOVWF  FF7
366E:  CALL   04D6
....................          delay_ms(100); 
3672:  MOVLW  64
3674:  MOVWF  xEC
3676:  CALL   02A0
....................       } 
367A:  BRA    36F2
....................       else if(t==5) 
367C:  MOVF   xDC,W
367E:  SUBLW  05
3680:  BNZ   36A4
....................       { 
....................          lcd_gotoxy(4,2);//LCD belirtilen satýr ve sütuna git komutu 
3682:  MOVLW  04
3684:  MOVWF  xEC
3686:  MOVLW  02
3688:  MOVWF  xED
368A:  CALL   0464
....................          printf(lcd_putc," CUMA"); 
368E:  MOVLW  8A
3690:  MOVWF  FF6
3692:  MOVLW  02
3694:  MOVWF  FF7
3696:  CALL   04D6
....................          delay_ms(100); 
369A:  MOVLW  64
369C:  MOVWF  xEC
369E:  CALL   02A0
....................       } 
36A2:  BRA    36F2
....................       else if(t==6) 
36A4:  MOVF   xDC,W
36A6:  SUBLW  06
36A8:  BNZ   36CC
....................       { 
....................          lcd_gotoxy(4,2);//LCD belirtilen satýr ve sütuna git komutu 
36AA:  MOVLW  04
36AC:  MOVWF  xEC
36AE:  MOVLW  02
36B0:  MOVWF  xED
36B2:  CALL   0464
....................          printf(lcd_putc,"CUMARTESI"); 
36B6:  MOVLW  90
36B8:  MOVWF  FF6
36BA:  MOVLW  02
36BC:  MOVWF  FF7
36BE:  CALL   04D6
....................          delay_ms(100); 
36C2:  MOVLW  64
36C4:  MOVWF  xEC
36C6:  CALL   02A0
....................       } 
36CA:  BRA    36F2
....................       else if(t==7) 
36CC:  MOVF   xDC,W
36CE:  SUBLW  07
36D0:  BNZ   36F2
....................       { 
....................          lcd_gotoxy(4,2);//LCD belirtilen satýr ve sütuna git komutu 
36D2:  MOVLW  04
36D4:  MOVWF  xEC
36D6:  MOVLW  02
36D8:  MOVWF  xED
36DA:  CALL   0464
....................          printf(lcd_putc,"PAZAR"); 
36DE:  MOVLW  9A
36E0:  MOVWF  FF6
36E2:  MOVLW  02
36E4:  MOVWF  FF7
36E6:  CALL   04D6
....................          delay_ms(100); 
36EA:  MOVLW  64
36EC:  MOVWF  xEC
36EE:  CALL   02A0
....................       } 
....................  
....................  
....................       if(input(pin_b5)==0)//OKEY VERILIRSE GUNU AL 
36F2:  BTFSC  F81.5
36F4:  BRA    3716
....................       {    
....................          delay_ms(20); 
36F6:  MOVLW  14
36F8:  MOVWF  xEC
36FA:  CALL   02A0
....................          while((input(pin_b5)==0)); 
36FE:  BTFSS  F81.5
3700:  BRA    36FE
....................          sifre[126]=harf(t); 
3702:  MOVFF  DC,F5
3706:  CALL   0858
370A:  MOVFF  01,82
....................          t=1; 
370E:  MOVLW  01
3710:  MOVWF  xDC
....................          k=1; 
3712:  MOVWF  xE1
....................          f=1; 
3714:  MOVWF  xDA
....................       } 
3716:  BRA    357A
....................    } 
3718:  GOTO   40F6 (RETURN)
.................... } 
....................  
.................... void clock2 (int k) 
.................... { 
....................    yan=1; 
371C:  MOVLW  01
371E:  MOVWF  xDB
....................   
....................    while(k==0) 
3720:  MOVF   xE1,F
3722:  BTFSS  FD8.2
3724:  BRA    3960
....................    {  
....................       lcd_gotoxy(8,2);//LCD belirtilen sütun ve satýra git komutu 
3726:  MOVLW  08
3728:  MOVWF  xEC
372A:  MOVLW  02
372C:  MOVWF  xED
372E:  CALL   0464
....................       printf(lcd_putc,":"); 
3732:  MOVLW  3A
3734:  MOVWF  xEB
3736:  CALL   0486
....................       delay_ms(5); 
373A:  MOVLW  05
373C:  MOVWF  xEC
373E:  CALL   02A0
....................       if(saat1<10)//Tek haneli rakamlarda ekranda basa 0 ATAR 
3742:  MOVF   xD5,W
3744:  SUBLW  09
3746:  BNC   3794
....................       { 
....................          lcd_gotoxy(6,2);//LCD belirtilen sütun ve satýra git komutu 
3748:  MOVLW  06
374A:  MOVWF  xEC
374C:  MOVLW  02
374E:  MOVWF  xED
3750:  CALL   0464
....................          printf(lcd_putc,"%02d",saat1);      
3754:  MOVFF  D5,E5
3758:  MOVLW  01
375A:  MOVWF  xE6
375C:  CALL   051E
....................          delay_ms(5); 
3760:  MOVLW  05
3762:  MOVWF  xEC
3764:  CALL   02A0
....................          if(yan==1)// SAG TARAF  DAKIKA AYARI 
3768:  DECFSZ xDB,W
376A:  BRA    3794
....................          { 
....................             lcd_gotoxy(7,2); 
376C:  MOVLW  07
376E:  MOVWF  xEC
3770:  MOVLW  02
3772:  MOVWF  xED
3774:  CALL   0464
....................             lcd_send_byte(0x00,0x0F); 
3778:  CLRF   xF0
377A:  MOVLW  0F
377C:  MOVWF  xF1
377E:  CALL   03A2
....................             delay_ms(40); 
3782:  MOVLW  28
3784:  MOVWF  xEC
3786:  CALL   02A0
....................             lcd_send_byte(0x00,0x0C); 
378A:  CLRF   xF0
378C:  MOVLW  0C
378E:  MOVWF  xF1
3790:  CALL   03A2
....................          } 
....................       } 
....................       if(saat1>=10)//Cift haneli rakamlarda ekranda basa 0 ATMAZ 
3794:  MOVF   xD5,W
3796:  SUBLW  09
3798:  BC    37E6
....................       { 
....................          lcd_gotoxy(6,2);//LCD belirtilen sütun ve satýra git komutu 
379A:  MOVLW  06
379C:  MOVWF  xEC
379E:  MOVLW  02
37A0:  MOVWF  xED
37A2:  CALL   0464
....................          printf(lcd_putc,"%2d",saat1); 
37A6:  MOVFF  D5,E5
37AA:  MOVLW  11
37AC:  MOVWF  xE6
37AE:  CALL   05C8
....................          delay_ms(5); 
37B2:  MOVLW  05
37B4:  MOVWF  xEC
37B6:  CALL   02A0
....................          if(yan==1)// SAG TARAF  DAKIKA AYARI 
37BA:  DECFSZ xDB,W
37BC:  BRA    37E6
....................          { 
....................             lcd_gotoxy(7,2); 
37BE:  MOVLW  07
37C0:  MOVWF  xEC
37C2:  MOVLW  02
37C4:  MOVWF  xED
37C6:  CALL   0464
....................             lcd_send_byte(0x00,0x0F); 
37CA:  CLRF   xF0
37CC:  MOVLW  0F
37CE:  MOVWF  xF1
37D0:  CALL   03A2
....................             delay_ms(40); 
37D4:  MOVLW  28
37D6:  MOVWF  xEC
37D8:  CALL   02A0
....................             lcd_send_byte(0x00,0x0C); 
37DC:  CLRF   xF0
37DE:  MOVLW  0C
37E0:  MOVWF  xF1
37E2:  CALL   03A2
....................          } 
....................       } 
....................        
....................       if(dakika1<10)//Tek haneli rakamlarda ekranda basa 0 ATAR 
37E6:  MOVF   xD7,W
37E8:  SUBLW  09
37EA:  BNC   383A
....................       { 
....................          lcd_gotoxy(10,2);//LCD belirtilen sütun ve satýra git komutu 
37EC:  MOVLW  0A
37EE:  MOVWF  xEC
37F0:  MOVLW  02
37F2:  MOVWF  xED
37F4:  CALL   0464
....................          printf(lcd_putc,"%02d",dakika1);     
37F8:  MOVFF  D7,E5
37FC:  MOVLW  01
37FE:  MOVWF  xE6
3800:  CALL   051E
....................          delay_ms(5); 
3804:  MOVLW  05
3806:  MOVWF  xEC
3808:  CALL   02A0
....................          if(yan==2)// SAG TARAF  DAKIKA AYARI 
380C:  MOVF   xDB,W
380E:  SUBLW  02
3810:  BNZ   383A
....................          { 
....................             lcd_gotoxy(11,2); 
3812:  MOVLW  0B
3814:  MOVWF  xEC
3816:  MOVLW  02
3818:  MOVWF  xED
381A:  CALL   0464
....................             lcd_send_byte(0x00,0x0F); 
381E:  CLRF   xF0
3820:  MOVLW  0F
3822:  MOVWF  xF1
3824:  CALL   03A2
....................             delay_ms(40); 
3828:  MOVLW  28
382A:  MOVWF  xEC
382C:  CALL   02A0
....................             lcd_send_byte(0x00,0x0C); 
3830:  CLRF   xF0
3832:  MOVLW  0C
3834:  MOVWF  xF1
3836:  CALL   03A2
....................          } 
....................       } 
....................       if(dakika1>=10)//Cift haneli rakamlarda ekranda basa 0 ATMAZ 
383A:  MOVF   xD7,W
383C:  SUBLW  09
383E:  BC    388E
....................       { 
....................          lcd_gotoxy(10,2);//LCD belirtilen sütun ve satýra git komutu 
3840:  MOVLW  0A
3842:  MOVWF  xEC
3844:  MOVLW  02
3846:  MOVWF  xED
3848:  CALL   0464
....................          printf(lcd_putc,"%2d",dakika1);     
384C:  MOVFF  D7,E5
3850:  MOVLW  11
3852:  MOVWF  xE6
3854:  CALL   05C8
....................          delay_ms(5); 
3858:  MOVLW  05
385A:  MOVWF  xEC
385C:  CALL   02A0
....................          if(yan==2)// SAG TARAF  DAKIKA AYARI 
3860:  MOVF   xDB,W
3862:  SUBLW  02
3864:  BNZ   388E
....................          { 
....................             lcd_gotoxy(11,2); 
3866:  MOVLW  0B
3868:  MOVWF  xEC
386A:  MOVLW  02
386C:  MOVWF  xED
386E:  CALL   0464
....................             lcd_send_byte(0x00,0x0F); 
3872:  CLRF   xF0
3874:  MOVLW  0F
3876:  MOVWF  xF1
3878:  CALL   03A2
....................             delay_ms(40); 
387C:  MOVLW  28
387E:  MOVWF  xEC
3880:  CALL   02A0
....................             lcd_send_byte(0x00,0x0C); 
3884:  CLRF   xF0
3886:  MOVLW  0C
3888:  MOVWF  xF1
388A:  CALL   03A2
....................          } 
....................       } 
....................        
....................       if(input(pin_b1)==0)//SOL TARAFA GECIS saat tarafý------------------------------RB1 
388E:  BTFSC  F81.1
3890:  BRA    38A8
....................       { 
....................          delay_ms(20); 
3892:  MOVLW  14
3894:  MOVWF  xEC
3896:  CALL   02A0
....................          while(input(pin_b1)==0); 
389A:  BTFSS  F81.1
389C:  BRA    389A
....................          yan--; 
389E:  DECF   xDB,F
....................          if(yan==0) 
38A0:  MOVF   xDB,F
38A2:  BNZ   38A8
....................          {yan=1;} 
38A4:  MOVLW  01
38A6:  MOVWF  xDB
....................       } 
....................     
....................       if(input(pin_b2)==0)//SAG TARAFA GECIS saat tarafý-----------------------------RB2 
38A8:  BTFSC  F81.2
38AA:  BRA    38C4
....................       { 
....................          delay_ms(20); 
38AC:  MOVLW  14
38AE:  MOVWF  xEC
38B0:  CALL   02A0
....................          while(input(pin_b2)==0); 
38B4:  BTFSS  F81.2
38B6:  BRA    38B4
....................          yan++; 
38B8:  INCF   xDB,F
....................          if(yan==3) 
38BA:  MOVF   xDB,W
38BC:  SUBLW  03
38BE:  BNZ   38C4
....................          {yan=2;} 
38C0:  MOVLW  02
38C2:  MOVWF  xDB
....................       } 
....................       
....................       if(yan==1)// SAAT AYARI 
38C4:  DECFSZ xDB,W
38C6:  BRA    38FE
....................       { 
....................          if(input(pin_b3)==0)// SAATI YUKARI SAYMA 
38C8:  BTFSC  F81.3
38CA:  BRA    38E2
....................          { 
....................             delay_ms(20); 
38CC:  MOVLW  14
38CE:  MOVWF  xEC
38D0:  CALL   02A0
....................             while(input(pin_b3)==0); 
38D4:  BTFSS  F81.3
38D6:  BRA    38D4
....................             saat1++; 
38D8:  INCF   xD5,F
....................             if(saat1==24) 
38DA:  MOVF   xD5,W
38DC:  SUBLW  18
38DE:  BNZ   38E2
....................             {saat1=0;} 
38E0:  CLRF   xD5
....................          } 
....................          if(input(pin_b4)==0)// SAATI ASAGI SAYMA 
38E2:  BTFSC  F81.4
38E4:  BRA    38FE
....................          { 
....................             delay_ms(20); 
38E6:  MOVLW  14
38E8:  MOVWF  xEC
38EA:  CALL   02A0
....................             while(input(pin_b4)==0);  
38EE:  BTFSS  F81.4
38F0:  BRA    38EE
....................             saat1--; 
38F2:  DECF   xD5,F
....................             if(saat1==-1) 
38F4:  MOVF   xD5,W
38F6:  SUBLW  FF
38F8:  BNZ   38FE
....................             {saat1=23;} 
38FA:  MOVLW  17
38FC:  MOVWF  xD5
....................          } 
....................       } 
....................    
....................       if(yan==2)// SAG TARAF  DAKIKA AYARI 
38FE:  MOVF   xDB,W
3900:  SUBLW  02
3902:  BNZ   393A
....................       { 
....................          if(input(pin_b3)==0)// DAKIKA YUKARI SAYMA 
3904:  BTFSC  F81.3
3906:  BRA    391E
....................          { 
....................             delay_ms(20); 
3908:  MOVLW  14
390A:  MOVWF  xEC
390C:  CALL   02A0
....................             while(input(pin_b3)==0); 
3910:  BTFSS  F81.3
3912:  BRA    3910
....................             dakika1++;  
3914:  INCF   xD7,F
....................             if(dakika1==60) 
3916:  MOVF   xD7,W
3918:  SUBLW  3C
391A:  BNZ   391E
....................             {dakika1=0;}            
391C:  CLRF   xD7
....................          } 
....................          if(input(pin_b4)==0)// DAKIKA ASAGI SAYMA 
391E:  BTFSC  F81.4
3920:  BRA    393A
....................          { 
....................             delay_ms(20); 
3922:  MOVLW  14
3924:  MOVWF  xEC
3926:  CALL   02A0
....................             while(input(pin_b4)==0); 
392A:  BTFSS  F81.4
392C:  BRA    392A
....................             dakika1--; 
392E:  DECF   xD7,F
....................             if(dakika1==-1) 
3930:  MOVF   xD7,W
3932:  SUBLW  FF
3934:  BNZ   393A
....................             {dakika1=59;} 
3936:  MOVLW  3B
3938:  MOVWF  xD7
....................          } 
....................       } 
....................  
....................       if(input(pin_b5)==0)//OKEY BUTONUNA BASINCA FONKSIYONDAN CIKILIR ve GUN ICERISINDEKI CLOCK FONK. GERI DONER 
393A:  BTFSC  F81.5
393C:  BRA    395E
....................       { 
....................          delay_ms(20); 
393E:  MOVLW  14
3940:  MOVWF  xEC
3942:  CALL   02A0
....................          while(input(pin_b5)==0); 
3946:  BTFSS  F81.5
3948:  BRA    3946
....................          zaman[0]=saat1; 
394A:  MOVFF  D5,88
....................          zaman[1]=dakika1;   
394E:  MOVFF  D7,89
....................          saat1=12; 
3952:  MOVLW  0C
3954:  MOVWF  xD5
....................          dakika1=0; 
3956:  CLRF   xD7
....................          k=1;// clock fonk. içindeki while() döngüsünden çýkaran deger 
3958:  MOVLW  01
395A:  MOVWF  xE1
....................          f=1; 
395C:  MOVWF  xDA
....................       } 
395E:  BRA    3720
....................  
....................    } 
3960:  GOTO   4128 (RETURN)
.................... } 
....................  
....................  
....................  
.................... char harf(int e) 
.................... {   
....................    if(e==0) 
*
0858:  MOVF   xF5,F
085A:  BNZ   0862
....................     {   
....................       dene[0]='c';   
085C:  MOVLW  63
085E:  MOVWF  x87
....................     }  
0860:  BRA    08CA
....................    else if(e==1) 
0862:  DECFSZ xF5,W
0864:  BRA    086C
....................     {    
....................       dene[0]='d';  
0866:  MOVLW  64
0868:  MOVWF  x87
....................     }    
086A:  BRA    08CA
....................       
....................     else if(e==2) 
086C:  MOVF   xF5,W
086E:  SUBLW  02
0870:  BNZ   0878
....................     {   
....................       dene[0]='e';  
0872:  MOVLW  65
0874:  MOVWF  x87
....................     }     
0876:  BRA    08CA
....................      
....................     else if(e==3) 
0878:  MOVF   xF5,W
087A:  SUBLW  03
087C:  BNZ   0884
....................     {   
....................       dene[0]='n';  
087E:  MOVLW  6E
0880:  MOVWF  x87
....................     }     
0882:  BRA    08CA
....................    else  if(e==4) 
0884:  MOVF   xF5,W
0886:  SUBLW  04
0888:  BNZ   0890
....................     {     
....................       dene[0]='g';  
088A:  MOVLW  67
088C:  MOVWF  x87
....................     }    
088E:  BRA    08CA
....................     else if(e==5) 
0890:  MOVF   xF5,W
0892:  SUBLW  05
0894:  BNZ   089C
....................     {     
....................       dene[0]='h';  
0896:  MOVLW  68
0898:  MOVWF  x87
....................     }     
089A:  BRA    08CA
....................     else if(e==6) 
089C:  MOVF   xF5,W
089E:  SUBLW  06
08A0:  BNZ   08A8
....................     {     
....................       dene[0]='m';  
08A2:  MOVLW  6D
08A4:  MOVWF  x87
....................     }    
08A6:  BRA    08CA
....................     else if(e==7) 
08A8:  MOVF   xF5,W
08AA:  SUBLW  07
08AC:  BNZ   08B4
....................     {     
....................       dene[0]='p';  
08AE:  MOVLW  70
08B0:  MOVWF  x87
....................     }     
08B2:  BRA    08CA
....................     else if(e==8) 
08B4:  MOVF   xF5,W
08B6:  SUBLW  08
08B8:  BNZ   08C0
....................     {    
....................       dene[0]='r';  
08BA:  MOVLW  72
08BC:  MOVWF  x87
....................     }     
08BE:  BRA    08CA
....................     else if(e==9) 
08C0:  MOVF   xF5,W
08C2:  SUBLW  09
08C4:  BNZ   08CA
....................     {     
....................       dene[0]='s';  
08C6:  MOVLW  73
08C8:  MOVWF  x87
....................     }    
....................  
....................     return dene[0];   
08CA:  MOVFF  87,01
08CE:  RETURN 0
.................... }     
....................  
....................  
.................... void kontrol(void) 
.................... { 
....................    if((sifre[0]!='c') && (sifre[0]!='d')) 
*
3964:  MOVF   04,W
3966:  SUBLW  63
3968:  BZ    398E
396A:  MOVF   04,W
396C:  SUBLW  64
396E:  BZ    398E
....................    { 
....................       for(int knt=0;knt<9;knt++) 
3970:  CLRF   xE1
3972:  MOVF   xE1,W
3974:  SUBLW  08
3976:  BNC   398E
....................       { 
....................          sifre[knt]='c'; 
3978:  CLRF   03
397A:  MOVF   xE1,W
397C:  ADDLW  04
397E:  MOVWF  FE9
3980:  MOVLW  00
3982:  ADDWFC 03,W
3984:  MOVWF  FEA
3986:  MOVLW  63
3988:  MOVWF  FEF
398A:  INCF   xE1,F
398C:  BRA    3972
....................       } 
....................    } 
....................     
....................    if((sifre[9]!='c') && (sifre[9]!='d')) 
398E:  MOVF   0D,W
3990:  SUBLW  63
3992:  BZ    39BA
3994:  MOVF   0D,W
3996:  SUBLW  64
3998:  BZ    39BA
....................    { 
....................       for(int knt=9;knt<18;knt++) 
399A:  MOVLW  09
399C:  MOVWF  xE2
399E:  MOVF   xE2,W
39A0:  SUBLW  11
39A2:  BNC   39BA
....................       { 
....................          sifre[knt]='c'; 
39A4:  CLRF   03
39A6:  MOVF   xE2,W
39A8:  ADDLW  04
39AA:  MOVWF  FE9
39AC:  MOVLW  00
39AE:  ADDWFC 03,W
39B0:  MOVWF  FEA
39B2:  MOVLW  63
39B4:  MOVWF  FEF
39B6:  INCF   xE2,F
39B8:  BRA    399E
....................       } 
....................    } 
....................  
....................    if((sifre[18]!='c') && (sifre[18]!='d')) 
39BA:  MOVF   16,W
39BC:  SUBLW  63
39BE:  BZ    39E6
39C0:  MOVF   16,W
39C2:  SUBLW  64
39C4:  BZ    39E6
....................    { 
....................       for(int knt=18;knt<27;knt++) 
39C6:  MOVLW  12
39C8:  MOVWF  xE3
39CA:  MOVF   xE3,W
39CC:  SUBLW  1A
39CE:  BNC   39E6
....................       { 
....................          sifre[knt]='c'; 
39D0:  CLRF   03
39D2:  MOVF   xE3,W
39D4:  ADDLW  04
39D6:  MOVWF  FE9
39D8:  MOVLW  00
39DA:  ADDWFC 03,W
39DC:  MOVWF  FEA
39DE:  MOVLW  63
39E0:  MOVWF  FEF
39E2:  INCF   xE3,F
39E4:  BRA    39CA
....................       } 
....................    } 
....................  
....................    if((sifre[27]!='c') && (sifre[27]!='d')) 
39E6:  MOVF   1F,W
39E8:  SUBLW  63
39EA:  BZ    3A12
39EC:  MOVF   1F,W
39EE:  SUBLW  64
39F0:  BZ    3A12
....................    { 
....................       for(int knt=27;knt<36;knt++) 
39F2:  MOVLW  1B
39F4:  MOVWF  xE4
39F6:  MOVF   xE4,W
39F8:  SUBLW  23
39FA:  BNC   3A12
....................       { 
....................          sifre[knt]='c'; 
39FC:  CLRF   03
39FE:  MOVF   xE4,W
3A00:  ADDLW  04
3A02:  MOVWF  FE9
3A04:  MOVLW  00
3A06:  ADDWFC 03,W
3A08:  MOVWF  FEA
3A0A:  MOVLW  63
3A0C:  MOVWF  FEF
3A0E:  INCF   xE4,F
3A10:  BRA    39F6
....................       } 
....................    } 
....................    if((sifre[36]!='c') && (sifre[36]!='d')) 
3A12:  MOVF   28,W
3A14:  SUBLW  63
3A16:  BZ    3A3E
3A18:  MOVF   28,W
3A1A:  SUBLW  64
3A1C:  BZ    3A3E
....................    { 
....................       for(int knt=36;knt<45;knt++) 
3A1E:  MOVLW  24
3A20:  MOVWF  xE5
3A22:  MOVF   xE5,W
3A24:  SUBLW  2C
3A26:  BNC   3A3E
....................       { 
....................          sifre[knt]='c'; 
3A28:  CLRF   03
3A2A:  MOVF   xE5,W
3A2C:  ADDLW  04
3A2E:  MOVWF  FE9
3A30:  MOVLW  00
3A32:  ADDWFC 03,W
3A34:  MOVWF  FEA
3A36:  MOVLW  63
3A38:  MOVWF  FEF
3A3A:  INCF   xE5,F
3A3C:  BRA    3A22
....................       } 
....................    } 
....................  
....................    if((sifre[45]!='c') && (sifre[45]!='d')) 
3A3E:  MOVF   31,W
3A40:  SUBLW  63
3A42:  BZ    3A6A
3A44:  MOVF   31,W
3A46:  SUBLW  64
3A48:  BZ    3A6A
....................    { 
....................       for(int knt=45;knt<54;knt++) 
3A4A:  MOVLW  2D
3A4C:  MOVWF  xE6
3A4E:  MOVF   xE6,W
3A50:  SUBLW  35
3A52:  BNC   3A6A
....................       { 
....................          sifre[knt]='c'; 
3A54:  CLRF   03
3A56:  MOVF   xE6,W
3A58:  ADDLW  04
3A5A:  MOVWF  FE9
3A5C:  MOVLW  00
3A5E:  ADDWFC 03,W
3A60:  MOVWF  FEA
3A62:  MOVLW  63
3A64:  MOVWF  FEF
3A66:  INCF   xE6,F
3A68:  BRA    3A4E
....................       } 
....................    } 
....................     
....................    if((sifre[54]!='c') && (sifre[54]!='d')) 
3A6A:  MOVF   3A,W
3A6C:  SUBLW  63
3A6E:  BZ    3A96
3A70:  MOVF   3A,W
3A72:  SUBLW  64
3A74:  BZ    3A96
....................    { 
....................       for(int knt=54;knt<63;knt++) 
3A76:  MOVLW  36
3A78:  MOVWF  xE7
3A7A:  MOVF   xE7,W
3A7C:  SUBLW  3E
3A7E:  BNC   3A96
....................       { 
....................          sifre[knt]='c'; 
3A80:  CLRF   03
3A82:  MOVF   xE7,W
3A84:  ADDLW  04
3A86:  MOVWF  FE9
3A88:  MOVLW  00
3A8A:  ADDWFC 03,W
3A8C:  MOVWF  FEA
3A8E:  MOVLW  63
3A90:  MOVWF  FEF
3A92:  INCF   xE7,F
3A94:  BRA    3A7A
....................       } 
....................    } 
....................     
....................    if((sifre[63]!='c') && (sifre[63]!='d')) 
3A96:  MOVF   43,W
3A98:  SUBLW  63
3A9A:  BZ    3AC2
3A9C:  MOVF   43,W
3A9E:  SUBLW  64
3AA0:  BZ    3AC2
....................    { 
....................       for(int knt=63;knt<72;knt++) 
3AA2:  MOVLW  3F
3AA4:  MOVWF  xE8
3AA6:  MOVF   xE8,W
3AA8:  SUBLW  47
3AAA:  BNC   3AC2
....................       { 
....................          sifre[knt]='c'; 
3AAC:  CLRF   03
3AAE:  MOVF   xE8,W
3AB0:  ADDLW  04
3AB2:  MOVWF  FE9
3AB4:  MOVLW  00
3AB6:  ADDWFC 03,W
3AB8:  MOVWF  FEA
3ABA:  MOVLW  63
3ABC:  MOVWF  FEF
3ABE:  INCF   xE8,F
3AC0:  BRA    3AA6
....................       } 
....................    } 
....................     
....................    if((sifre[72]!='c') && (sifre[72]!='d')) 
3AC2:  MOVF   4C,W
3AC4:  SUBLW  63
3AC6:  BZ    3AEE
3AC8:  MOVF   4C,W
3ACA:  SUBLW  64
3ACC:  BZ    3AEE
....................    { 
....................       for(int knt=72;knt<81;knt++) 
3ACE:  MOVLW  48
3AD0:  MOVWF  xE9
3AD2:  MOVF   xE9,W
3AD4:  SUBLW  50
3AD6:  BNC   3AEE
....................       { 
....................          sifre[knt]='c'; 
3AD8:  CLRF   03
3ADA:  MOVF   xE9,W
3ADC:  ADDLW  04
3ADE:  MOVWF  FE9
3AE0:  MOVLW  00
3AE2:  ADDWFC 03,W
3AE4:  MOVWF  FEA
3AE6:  MOVLW  63
3AE8:  MOVWF  FEF
3AEA:  INCF   xE9,F
3AEC:  BRA    3AD2
....................       } 
....................    } 
....................     
....................    if((sifre[81]!='c') && (sifre[81]!='d')) 
3AEE:  MOVF   55,W
3AF0:  SUBLW  63
3AF2:  BZ    3B1A
3AF4:  MOVF   55,W
3AF6:  SUBLW  64
3AF8:  BZ    3B1A
....................    { 
....................       for(int knt=81;knt<90;knt++) 
3AFA:  MOVLW  51
3AFC:  MOVWF  xEA
3AFE:  MOVF   xEA,W
3B00:  SUBLW  59
3B02:  BNC   3B1A
....................       { 
....................          sifre[knt]='c'; 
3B04:  CLRF   03
3B06:  MOVF   xEA,W
3B08:  ADDLW  04
3B0A:  MOVWF  FE9
3B0C:  MOVLW  00
3B0E:  ADDWFC 03,W
3B10:  MOVWF  FEA
3B12:  MOVLW  63
3B14:  MOVWF  FEF
3B16:  INCF   xEA,F
3B18:  BRA    3AFE
....................       } 
....................    } 
....................     
....................    if((sifre[90]!='c') && (sifre[90]!='d')) 
3B1A:  MOVF   5E,W
3B1C:  SUBLW  63
3B1E:  BZ    3B46
3B20:  MOVF   5E,W
3B22:  SUBLW  64
3B24:  BZ    3B46
....................    { 
....................       for(int knt=90;knt<99;knt++) 
3B26:  MOVLW  5A
3B28:  MOVWF  xEB
3B2A:  MOVF   xEB,W
3B2C:  SUBLW  62
3B2E:  BNC   3B46
....................       { 
....................          sifre[knt]='c'; 
3B30:  CLRF   03
3B32:  MOVF   xEB,W
3B34:  ADDLW  04
3B36:  MOVWF  FE9
3B38:  MOVLW  00
3B3A:  ADDWFC 03,W
3B3C:  MOVWF  FEA
3B3E:  MOVLW  63
3B40:  MOVWF  FEF
3B42:  INCF   xEB,F
3B44:  BRA    3B2A
....................       } 
....................    } 
....................     
....................    if((sifre[99]!='c') && (sifre[99]!='d')) 
3B46:  MOVF   67,W
3B48:  SUBLW  63
3B4A:  BZ    3B72
3B4C:  MOVF   67,W
3B4E:  SUBLW  64
3B50:  BZ    3B72
....................    { 
....................       for(int knt=99;knt<108;knt++) 
3B52:  MOVLW  63
3B54:  MOVWF  xEC
3B56:  MOVF   xEC,W
3B58:  SUBLW  6B
3B5A:  BNC   3B72
....................       { 
....................          sifre[knt]='c'; 
3B5C:  CLRF   03
3B5E:  MOVF   xEC,W
3B60:  ADDLW  04
3B62:  MOVWF  FE9
3B64:  MOVLW  00
3B66:  ADDWFC 03,W
3B68:  MOVWF  FEA
3B6A:  MOVLW  63
3B6C:  MOVWF  FEF
3B6E:  INCF   xEC,F
3B70:  BRA    3B56
....................       } 
....................    } 
....................     
....................    if((sifre[108]!='c') && (sifre[108]!='d')) 
3B72:  MOVF   70,W
3B74:  SUBLW  63
3B76:  BZ    3B9E
3B78:  MOVF   70,W
3B7A:  SUBLW  64
3B7C:  BZ    3B9E
....................    { 
....................       for(int knt=108;knt<117;knt++) 
3B7E:  MOVLW  6C
3B80:  MOVWF  xED
3B82:  MOVF   xED,W
3B84:  SUBLW  74
3B86:  BNC   3B9E
....................       { 
....................          sifre[knt]='c'; 
3B88:  CLRF   03
3B8A:  MOVF   xED,W
3B8C:  ADDLW  04
3B8E:  MOVWF  FE9
3B90:  MOVLW  00
3B92:  ADDWFC 03,W
3B94:  MOVWF  FEA
3B96:  MOVLW  63
3B98:  MOVWF  FEF
3B9A:  INCF   xED,F
3B9C:  BRA    3B82
....................       } 
....................    } 
....................    if((sifre[117]!='c') && (sifre[117]!='d')) 
3B9E:  MOVF   79,W
3BA0:  SUBLW  63
3BA2:  BZ    3BCA
3BA4:  MOVF   79,W
3BA6:  SUBLW  64
3BA8:  BZ    3BCA
....................    { 
....................       for(int knt=117;knt<126;knt++) 
3BAA:  MOVLW  75
3BAC:  MOVWF  xEE
3BAE:  MOVF   xEE,W
3BB0:  SUBLW  7D
3BB2:  BNC   3BCA
....................       { 
....................          sifre[knt]='c'; 
3BB4:  CLRF   03
3BB6:  MOVF   xEE,W
3BB8:  ADDLW  04
3BBA:  MOVWF  FE9
3BBC:  MOVLW  00
3BBE:  ADDWFC 03,W
3BC0:  MOVWF  FEA
3BC2:  MOVLW  63
3BC4:  MOVWF  FEF
3BC6:  INCF   xEE,F
3BC8:  BRA    3BAE
....................       } 
....................    } 
3BCA:  GOTO   41B6 (RETURN)
....................  
.................... } 
....................  
....................  
....................  
....................  
....................  
....................  
....................  
....................  
....................  
....................  
....................  
....................  
....................  
....................  
....................  

Configuration Fuses:
   Word  1: C100   XT FCMEN IESO
   Word  2: 1E19   NOPUT NOBROWNOUT BORV21 NOWDT WDT32768
   Word  3: 8700   CCP2C1 PBADEN LPT1OSC MCLR
   Word  4: 0081   STVREN NOLVP NOXINST NODEBUG
   Word  5: C00F   NOPROTECT NOCPB NOCPD
   Word  6: E00F   NOWRT NOWRTC NOWRTB NOWRTD
   Word  7: 400F   NOEBTR NOEBTRB
